ARM GAS  C:\Users\User\AppData\Local\Temp\ccQrzrT8.s 			page 1


   1              		.syntax unified
   2              		.cpu cortex-m0
   3              		.fpu softvfp
   4              		.eabi_attribute 20, 1
   5              		.eabi_attribute 21, 1
   6              		.eabi_attribute 23, 3
   7              		.eabi_attribute 24, 1
   8              		.eabi_attribute 25, 1
   9              		.eabi_attribute 26, 1
  10              		.eabi_attribute 30, 1
  11              		.eabi_attribute 34, 0
  12              		.eabi_attribute 18, 4
  13              		.thumb
  14              		.syntax unified
  15              		.file	"main.c"
  16              		.text
  17              	.Ltext0:
  18              		.cfi_sections	.debug_frame
  19              		.section	.text.initMatrix,"ax",%progbits
  20              		.align	2
  21              		.code	16
  22              		.thumb_func
  23              		.type	initMatrix, %function
  24              	initMatrix:
  25              	.LFB34:
  26              		.file 1 "main.c"
   1:main.c        **** #include "project.h"  
   2:main.c        **** static uint8_t LED_NUM[] = {  
   3:main.c        ****     0xC0,   //0  
   4:main.c        ****     0xF9,   //1  
   5:main.c        ****     0xA4,   //2  
   6:main.c        ****     0xB0,   //3  
   7:main.c        ****     0x99,   //4  
   8:main.c        ****     0x92,   //5  
   9:main.c        ****     0x82,   //6  
  10:main.c        ****     0xF8,   //7  
  11:main.c        ****     0x80,   //8  
  12:main.c        ****     0x90,   //9  
  13:main.c        ****     0xBF,   //-  
  14:main.c        ****     0x88,   //A  
  15:main.c        ****     0x83,   //b  
  16:main.c        ****     0xC6,   //C  
  17:main.c        ****     0xA1,   //d  
  18:main.c        ****     0x86,   //E  
  19:main.c        ****     0x8E,   //F     0x7F    //.  
  20:main.c        **** };  
  21:main.c        **** /* send data function */      
  22:main.c        **** static void FourDigit74HC595_sendData(uint8_t data) {      
  23:main.c        ****     for(uint8_t i = 0; i < 8; i++) {          
  24:main.c        ****         if(data & (0x80 >> i))  
  25:main.c        ****         {  
  26:main.c        ****             Pin_DO_Write(1);  
  27:main.c        ****         }          
  28:main.c        ****         else  
  29:main.c        ****         {  
  30:main.c        ****             Pin_DO_Write(0);  
  31:main.c        ****         }  
ARM GAS  C:\Users\User\AppData\Local\Temp\ccQrzrT8.s 			page 2


  32:main.c        ****         Pin_CLK_Write(1);  
  33:main.c        ****         Pin_CLK_Write(0);  
  34:main.c        ****     }  
  35:main.c        **** } 
  36:main.c        ****  
  37:main.c        **** static void FourDigit74HC595_sendOneDigit(uint8_t position, uint8_t digit, 
  38:main.c        **** uint8_t dot)   
  39:main.c        **** {  
  40:main.c        ****     if(position >= 8)   // out of range, clear 7-segment display  
  41:main.c        ****     {  
  42:main.c        ****         FourDigit74HC595_sendData(0xFF);  
  43:main.c        ****         FourDigit74HC595_sendData(0xFF);  
  44:main.c        ****     }  
  45:main.c        ****     FourDigit74HC595_sendData(0xFF & ~(1 << position));      
  46:main.c        ****     if(dot) // if dot is needed  
  47:main.c        ****     {  
  48:main.c        ****         FourDigit74HC595_sendData(LED_NUM[digit] & 0x7F);  
  49:main.c        ****     }     else  
  50:main.c        ****     {  
  51:main.c        ****         FourDigit74HC595_sendData(LED_NUM[digit]);  
  52:main.c        ****     }  
  53:main.c        ****     Pin_Latch_Write(1); // Latch shift register  
  54:main.c        ****     Pin_Latch_Write(0);  
  55:main.c        **** }  
  56:main.c        ****  
  57:main.c        **** /* function of drive mode configuration */  
  58:main.c        **** static void (*COLUMN_x_SetDriveMode[3])(uint8_t mode) = {  
  59:main.c        ****     COLUMN_0_SetDriveMode,  
  60:main.c        ****     COLUMN_1_SetDriveMode,  
  61:main.c        ****     COLUMN_2_SetDriveMode  
  62:main.c        **** };    
  63:main.c        **** /* column write function */      
  64:main.c        **** static void (*COLUMN_x_Write[3])(uint8_t value) = {  
  65:main.c        ****     COLUMN_0_Write,  
  66:main.c        ****     COLUMN_1_Write,  
  67:main.c        ****     COLUMN_2_Write  
  68:main.c        **** };  
  69:main.c        **** /* read row function */     
  70:main.c        **** static uint8 (*ROW_x_Read[4])() = {  
  71:main.c        ****     ROW_0_Read,  
  72:main.c        ****     ROW_1_Read,  
  73:main.c        ****     ROW_2_Read,  
  74:main.c        ****     ROW_3_Read  
  75:main.c        **** };  
  76:main.c        ****   
  77:main.c        **** /* [ROW][COLUMN] */  
  78:main.c        **** static uint8_t keys[4][3] = {  
  79:main.c        ****     {1, 2, 3},  
  80:main.c        ****     {4, 5, 6},  
  81:main.c        ****     {7, 8, 9},  
  82:main.c        ****     {10, 0, 11},  
  83:main.c        **** };  
  84:main.c        ****  
  85:main.c        **** /* Password settings */ 
  86:main.c        **** #define PASSWORD_LENGTH 3 
  87:main.c        **** static const uint8_t PASSWORD[PASSWORD_LENGTH] = {1, 2, 3}; // ąÆčüčéą░ąĮąŠą▓č¢čéčī čüą▓č¢ą╣ ą┐ą░čĆ
  88:main.c        **** static uint8_t password_buffer[PASSWORD_LENGTH]; 
ARM GAS  C:\Users\User\AppData\Local\Temp\ccQrzrT8.s 			page 3


  89:main.c        **** static uint8_t password_index = 0; 
  90:main.c        **** static uint8_t password_locked = 1; // 1 = ąĘą░ą▒ą╗ąŠą║ąŠą▓ą░ąĮąŠ, 0 = čĆąŠąĘą▒ą╗ąŠą║ąŠą▓ą░ąĮąŠ 
  91:main.c        ****   
  92:main.c        **** /* matrix initialization function */  
  93:main.c        **** static void initMatrix()  
  94:main.c        **** {  
  27              		.loc 1 94 0
  28              		.cfi_startproc
  29              		@ args = 0, pretend = 0, frame = 0
  30              		@ frame_needed = 0, uses_anonymous_args = 0
  31 0000 10B5     		push	{r4, lr}
  32              		.cfi_def_cfa_offset 8
  33              		.cfi_offset 4, -8
  34              		.cfi_offset 14, -4
  35              	.LVL0:
  36              	.LBB2:
  95:main.c        ****     for(int column_index = 0; column_index < 3; column_index++)  
  37              		.loc 1 95 0
  38 0002 0024     		movs	r4, #0
  39 0004 05E0     		b	.L2
  40              	.LVL1:
  41              	.L3:
  96:main.c        ****     {  
  97:main.c        ****         COLUMN_x_SetDriveMode[column_index](COLUMN_0_DM_DIG_HIZ);  
  42              		.loc 1 97 0 discriminator 3
  43 0006 A200     		lsls	r2, r4, #2
  44 0008 034B     		ldr	r3, .L4
  45 000a D358     		ldr	r3, [r2, r3]
  46 000c 0120     		movs	r0, #1
  47 000e 9847     		blx	r3
  48              	.LVL2:
  95:main.c        ****     for(int column_index = 0; column_index < 3; column_index++)  
  49              		.loc 1 95 0 discriminator 3
  50 0010 0134     		adds	r4, r4, #1
  51              	.LVL3:
  52              	.L2:
  95:main.c        ****     for(int column_index = 0; column_index < 3; column_index++)  
  53              		.loc 1 95 0 is_stmt 0 discriminator 1
  54 0012 022C     		cmp	r4, #2
  55 0014 F7DD     		ble	.L3
  56              	.LBE2:
  98:main.c        ****     }  
  99:main.c        **** }  
  57              		.loc 1 99 0 is_stmt 1
  58              		@ sp needed
  59              	.LVL4:
  60 0016 10BD     		pop	{r4, pc}
  61              	.L5:
  62              		.align	2
  63              	.L4:
  64 0018 60000000 		.word	.LANCHOR0
  65              		.cfi_endproc
  66              	.LFE34:
  67              		.size	initMatrix, .-initMatrix
  68              		.section	.text.readMatrix,"ax",%progbits
  69              		.align	2
  70              		.code	16
ARM GAS  C:\Users\User\AppData\Local\Temp\ccQrzrT8.s 			page 4


  71              		.thumb_func
  72              		.type	readMatrix, %function
  73              	readMatrix:
  74              	.LFB35:
 100:main.c        ****   
 101:main.c        **** /* keys matrix read function */  
 102:main.c        **** static void readMatrix()  
 103:main.c        **** {  
  75              		.loc 1 103 0
  76              		.cfi_startproc
  77              		@ args = 0, pretend = 0, frame = 0
  78              		@ frame_needed = 0, uses_anonymous_args = 0
  79 0000 70B5     		push	{r4, r5, r6, lr}
  80              		.cfi_def_cfa_offset 16
  81              		.cfi_offset 4, -16
  82              		.cfi_offset 5, -12
  83              		.cfi_offset 6, -8
  84              		.cfi_offset 14, -4
  85              	.LVL5:
  86              	.LBB3:
 104:main.c        ****     /* define the length of a row and column */  
 105:main.c        ****     uint8_t row_counter = sizeof(ROW_x_Read)/sizeof(ROW_x_Read[0]);  
 106:main.c        ****     uint8_t column_counter = 
 107:main.c        **** sizeof(COLUMN_x_Write)/sizeof(COLUMN_x_Write[0]);      
 108:main.c        ****     /* column: iterate the columns */  
 109:main.c        ****     for(int column_index = 0; column_index < column_counter; column_index++) 
  87              		.loc 1 109 0
  88 0002 0025     		movs	r5, #0
  89 0004 1DE0     		b	.L7
  90              	.LVL6:
  91              	.L10:
 110:main.c        **** {  
 111:main.c        ****         COLUMN_x_SetDriveMode[column_index](COLUMN_0_DM_STRONG);  
  92              		.loc 1 111 0
  93 0006 104E     		ldr	r6, .L11
  94 0008 AC00     		lsls	r4, r5, #2
  95 000a 0620     		movs	r0, #6
  96 000c A359     		ldr	r3, [r4, r6]
  97 000e 9847     		blx	r3
  98              	.LVL7:
 112:main.c        ****         COLUMN_x_Write[column_index](0); 
  99              		.loc 1 112 0
 100 0010 3419     		adds	r4, r6, r4
 101 0012 E368     		ldr	r3, [r4, #12]
 102 0014 0020     		movs	r0, #0
 103 0016 9847     		blx	r3
 104              	.LVL8:
 105              	.LBB4:
 113:main.c        ****         /* row: interate throught the rows */  
 114:main.c        ****         for(int row_index = 0; row_index < row_counter; row_index++)  
 106              		.loc 1 114 0
 107 0018 0024     		movs	r4, #0
 108 001a 0AE0     		b	.L8
 109              	.LVL9:
 110              	.L9:
 115:main.c        ****         {  
 116:main.c        ****             keys[row_index][column_index] = ROW_x_Read[row_index]();  
ARM GAS  C:\Users\User\AppData\Local\Temp\ccQrzrT8.s 			page 5


 111              		.loc 1 116 0 discriminator 3
 112 001c A300     		lsls	r3, r4, #2
 113 001e 0A4A     		ldr	r2, .L11
 114 0020 D318     		adds	r3, r2, r3
 115 0022 9B69     		ldr	r3, [r3, #24]
 116 0024 9847     		blx	r3
 117              	.LVL10:
 118 0026 6300     		lsls	r3, r4, #1
 119 0028 1B19     		adds	r3, r3, r4
 120 002a 084A     		ldr	r2, .L11+4
 121 002c D318     		adds	r3, r2, r3
 122 002e 5855     		strb	r0, [r3, r5]
 114:main.c        ****         {  
 123              		.loc 1 114 0 discriminator 3
 124 0030 0134     		adds	r4, r4, #1
 125              	.LVL11:
 126              	.L8:
 114:main.c        ****         {  
 127              		.loc 1 114 0 is_stmt 0 discriminator 1
 128 0032 032C     		cmp	r4, #3
 129 0034 F2DD     		ble	.L9
 130              	.LBE4:
 117:main.c        ****         }  
 118:main.c        ****         /* disable the column */  
 119:main.c        ****         COLUMN_x_SetDriveMode[column_index](COLUMN_0_DM_DIG_HIZ);  
 131              		.loc 1 119 0 is_stmt 1 discriminator 2
 132 0036 AA00     		lsls	r2, r5, #2
 133 0038 034B     		ldr	r3, .L11
 134 003a D358     		ldr	r3, [r2, r3]
 135 003c 0120     		movs	r0, #1
 136 003e 9847     		blx	r3
 137              	.LVL12:
 109:main.c        **** {  
 138              		.loc 1 109 0 discriminator 2
 139 0040 0135     		adds	r5, r5, #1
 140              	.LVL13:
 141              	.L7:
 109:main.c        **** {  
 142              		.loc 1 109 0 is_stmt 0 discriminator 1
 143 0042 022D     		cmp	r5, #2
 144 0044 DFDD     		ble	.L10
 145              	.LBE3:
 120:main.c        ****     }  
 121:main.c        **** } 
 146              		.loc 1 121 0 is_stmt 1
 147              		@ sp needed
 148              	.LVL14:
 149 0046 70BD     		pop	{r4, r5, r6, pc}
 150              	.L12:
 151              		.align	2
 152              	.L11:
 153 0048 60000000 		.word	.LANCHOR0
 154 004c 00000000 		.word	.LANCHOR1
 155              		.cfi_endproc
 156              	.LFE35:
 157              		.size	readMatrix, .-readMatrix
 158              		.section	.text.printButtonName,"ax",%progbits
ARM GAS  C:\Users\User\AppData\Local\Temp\ccQrzrT8.s 			page 6


 159              		.align	2
 160              		.code	16
 161              		.thumb_func
 162              		.type	printButtonName, %function
 163              	printButtonName:
 164              	.LFB38:
 122:main.c        ****  
 123:main.c        **** /* Function to check password */ 
 124:main.c        **** static void checkPassword() 
 125:main.c        **** { 
 126:main.c        ****     uint8_t correct = 1; 
 127:main.c        ****     for(int i = 0; i < PASSWORD_LENGTH; i++) 
 128:main.c        ****     { 
 129:main.c        ****         if(password_buffer[i] != PASSWORD[i]) 
 130:main.c        ****         { 
 131:main.c        ****             correct = 0; 
 132:main.c        ****             break; 
 133:main.c        ****         } 
 134:main.c        ****     } 
 135:main.c        ****      
 136:main.c        ****     if(correct) 
 137:main.c        ****     { 
 138:main.c        ****         SW_Tx_UART_PutString("Access allowed"); 
 139:main.c        ****         SW_Tx_UART_PutCRLF(); 
 140:main.c        ****         password_locked = 0; 
 141:main.c        ****         // ąæč¢ą╗ąĖą╣ čüą▓č¢čéą╗ąŠą┤č¢ąŠą┤ ą┐čĆąĖ čĆąŠąĘą▒ą╗ąŠą║čāą▓ą░ąĮąĮč¢ 
 142:main.c        ****         LED_R_Write(0); 
 143:main.c        ****         LED_G_Write(0); 
 144:main.c        ****         LED_B_Write(0); 
 145:main.c        ****         CyDelay(1000); 
 146:main.c        ****     } 
 147:main.c        ****     else 
 148:main.c        ****     { 
 149:main.c        ****         SW_Tx_UART_PutString("Access denied"); 
 150:main.c        ****         SW_Tx_UART_PutCRLF(); 
 151:main.c        ****         password_locked = 1; 
 152:main.c        ****     } 
 153:main.c        ****      
 154:main.c        ****     password_index = 0; 
 155:main.c        **** } 
 156:main.c        ****  
 157:main.c        **** /* Function to set LED color based on button */ 
 158:main.c        **** static void setLEDColor(uint8_t button_value) 
 159:main.c        **** { 
 160:main.c        ****     switch(button_value) 
 161:main.c        ****     { 
 162:main.c        ****         case 1:  // Red 
 163:main.c        ****         case 7: 
 164:main.c        ****         FourDigit74HC595_sendOneDigit(0, button_value, 0); 
 165:main.c        ****             LED_R_Write(0); 
 166:main.c        ****             LED_G_Write(1); 
 167:main.c        ****             LED_B_Write(1); 
 168:main.c        ****             break; 
 169:main.c        ****              
 170:main.c        ****         case 2:  // Green 
 171:main.c        ****         
 172:main.c        ****         case 8: 
ARM GAS  C:\Users\User\AppData\Local\Temp\ccQrzrT8.s 			page 7


 173:main.c        ****         FourDigit74HC595_sendOneDigit(0, button_value, 0); 
 174:main.c        ****             LED_R_Write(1); 
 175:main.c        ****             LED_G_Write(0); 
 176:main.c        ****             LED_B_Write(1); 
 177:main.c        ****             break; 
 178:main.c        ****              
 179:main.c        ****         case 3:  // Blue 
 180:main.c        ****         FourDigit74HC595_sendOneDigit(0, 3, 0); 
 181:main.c        ****         case 9: 
 182:main.c        ****         FourDigit74HC595_sendOneDigit(0, button_value, 0); 
 183:main.c        ****             LED_R_Write(1); 
 184:main.c        ****             LED_G_Write(1); 
 185:main.c        ****             LED_B_Write(0); 
 186:main.c        ****             break; 
 187:main.c        ****              
 188:main.c        ****         case 4:  // Yellow (Red + Green) 
 189:main.c        ****         case 10: // * 
 190:main.c        ****         FourDigit74HC595_sendOneDigit(0, button_value, 0); 
 191:main.c        ****             LED_R_Write(0); 
 192:main.c        ****             LED_G_Write(0); 
 193:main.c        ****             LED_B_Write(1); 
 194:main.c        ****             break; 
 195:main.c        ****              
 196:main.c        ****         case 5:  // Purple (Red + Blue) 
 197:main.c        ****         case 0: 
 198:main.c        ****         FourDigit74HC595_sendOneDigit(0, button_value, 0); 
 199:main.c        ****             LED_R_Write(0); 
 200:main.c        ****             LED_G_Write(1); 
 201:main.c        ****             LED_B_Write(0); 
 202:main.c        ****             break; 
 203:main.c        ****              
 204:main.c        ****         case 6:  // Cyan (Green + Blue) 
 205:main.c        ****         case 11: // # 
 206:main.c        ****         FourDigit74HC595_sendOneDigit(0, button_value, 0); 
 207:main.c        ****             LED_R_Write(1); 
 208:main.c        ****             LED_G_Write(0); 
 209:main.c        ****             LED_B_Write(0); 
 210:main.c        ****             break; 
 211:main.c        ****              
 212:main.c        ****         default: 
 213:main.c        ****         FourDigit74HC595_sendOneDigit(8, 0, 0); 
 214:main.c        ****             // Turn off LED (Black) 
 215:main.c        ****             LED_R_Write(1); 
 216:main.c        ****             LED_G_Write(1); 
 217:main.c        ****             LED_B_Write(1); 
 218:main.c        ****             break; 
 219:main.c        ****     } 
 220:main.c        **** } 
 221:main.c        ****  
 222:main.c        **** /* Function to get button name */ 
 223:main.c        **** static void printButtonName(uint8_t button_value) 
 224:main.c        **** { 
 165              		.loc 1 224 0
 166              		.cfi_startproc
 167              		@ args = 0, pretend = 0, frame = 0
 168              		@ frame_needed = 0, uses_anonymous_args = 0
 169              	.LVL15:
ARM GAS  C:\Users\User\AppData\Local\Temp\ccQrzrT8.s 			page 8


 170 0000 10B5     		push	{r4, lr}
 171              		.cfi_def_cfa_offset 8
 172              		.cfi_offset 4, -8
 173              		.cfi_offset 14, -4
 225:main.c        ****     switch(button_value) 
 174              		.loc 1 225 0
 175 0002 0B28     		cmp	r0, #11
 176 0004 32D8     		bhi	.L14
 177 0006 8000     		lsls	r0, r0, #2
 178              	.LVL16:
 179 0008 1A4B     		ldr	r3, .L28
 180 000a 1B58     		ldr	r3, [r3, r0]
 181 000c 9F46     		mov	pc, r3
 182              		.section	.rodata
 183              		.align	2
 184              	.L16:
 185 0000 0E000000 		.word	.L15
 186 0004 16000000 		.word	.L17
 187 0008 1E000000 		.word	.L18
 188 000c 26000000 		.word	.L19
 189 0010 2E000000 		.word	.L20
 190 0014 36000000 		.word	.L21
 191 0018 3E000000 		.word	.L22
 192 001c 46000000 		.word	.L23
 193 0020 4E000000 		.word	.L24
 194 0024 56000000 		.word	.L25
 195 0028 5E000000 		.word	.L26
 196 002c 66000000 		.word	.L27
 197              		.section	.text.printButtonName
 198              	.L15:
 226:main.c        ****     { 
 227:main.c        ****         case 0: 
 228:main.c        ****             SW_Tx_UART_PutString("Button 0 pressed"); 
 199              		.loc 1 228 0
 200 000e 1A48     		ldr	r0, .L28+4
 201 0010 FFF7FEFF 		bl	SW_Tx_UART_PutString
 202              	.LVL17:
 229:main.c        ****             break; 
 203              		.loc 1 229 0
 204 0014 2AE0     		b	.L14
 205              	.L17:
 230:main.c        ****         case 1: 
 231:main.c        ****             SW_Tx_UART_PutString("Button 1 pressed"); 
 206              		.loc 1 231 0
 207 0016 1948     		ldr	r0, .L28+8
 208 0018 FFF7FEFF 		bl	SW_Tx_UART_PutString
 209              	.LVL18:
 232:main.c        ****             break; 
 210              		.loc 1 232 0
 211 001c 26E0     		b	.L14
 212              	.L18:
 233:main.c        ****         case 2: 
 234:main.c        ****             SW_Tx_UART_PutString("Button 2 pressed"); 
 213              		.loc 1 234 0
 214 001e 1848     		ldr	r0, .L28+12
 215 0020 FFF7FEFF 		bl	SW_Tx_UART_PutString
 216              	.LVL19:
ARM GAS  C:\Users\User\AppData\Local\Temp\ccQrzrT8.s 			page 9


 235:main.c        ****             break; 
 217              		.loc 1 235 0
 218 0024 22E0     		b	.L14
 219              	.L19:
 236:main.c        ****         case 3: 
 237:main.c        ****             SW_Tx_UART_PutString("Button 3 pressed"); 
 220              		.loc 1 237 0
 221 0026 1748     		ldr	r0, .L28+16
 222 0028 FFF7FEFF 		bl	SW_Tx_UART_PutString
 223              	.LVL20:
 238:main.c        ****             break; 
 224              		.loc 1 238 0
 225 002c 1EE0     		b	.L14
 226              	.L20:
 239:main.c        ****         case 4: 
 240:main.c        ****             SW_Tx_UART_PutString("Button 4 pressed"); 
 227              		.loc 1 240 0
 228 002e 1648     		ldr	r0, .L28+20
 229 0030 FFF7FEFF 		bl	SW_Tx_UART_PutString
 230              	.LVL21:
 241:main.c        ****             break; 
 231              		.loc 1 241 0
 232 0034 1AE0     		b	.L14
 233              	.L21:
 242:main.c        ****         case 5: 
 243:main.c        ****             SW_Tx_UART_PutString("Button 5 pressed"); 
 234              		.loc 1 243 0
 235 0036 1548     		ldr	r0, .L28+24
 236 0038 FFF7FEFF 		bl	SW_Tx_UART_PutString
 237              	.LVL22:
 244:main.c        ****             break; 
 238              		.loc 1 244 0
 239 003c 16E0     		b	.L14
 240              	.L22:
 245:main.c        ****         case 6: 
 246:main.c        ****             SW_Tx_UART_PutString("Button 6 pressed"); 
 241              		.loc 1 246 0
 242 003e 1448     		ldr	r0, .L28+28
 243 0040 FFF7FEFF 		bl	SW_Tx_UART_PutString
 244              	.LVL23:
 247:main.c        ****             break; 
 245              		.loc 1 247 0
 246 0044 12E0     		b	.L14
 247              	.L23:
 248:main.c        ****         case 7: 
 249:main.c        ****             SW_Tx_UART_PutString("Button 7 pressed"); 
 248              		.loc 1 249 0
 249 0046 1348     		ldr	r0, .L28+32
 250 0048 FFF7FEFF 		bl	SW_Tx_UART_PutString
 251              	.LVL24:
 250:main.c        ****             break; 
 252              		.loc 1 250 0
 253 004c 0EE0     		b	.L14
 254              	.L24:
 251:main.c        ****         case 8: 
 252:main.c        ****             SW_Tx_UART_PutString("Button 8 pressed"); 
 255              		.loc 1 252 0
ARM GAS  C:\Users\User\AppData\Local\Temp\ccQrzrT8.s 			page 10


 256 004e 1248     		ldr	r0, .L28+36
 257 0050 FFF7FEFF 		bl	SW_Tx_UART_PutString
 258              	.LVL25:
 253:main.c        ****             break; 
 259              		.loc 1 253 0
 260 0054 0AE0     		b	.L14
 261              	.L25:
 254:main.c        ****         case 9: 
 255:main.c        ****             SW_Tx_UART_PutString("Button 9 pressed"); 
 262              		.loc 1 255 0
 263 0056 1148     		ldr	r0, .L28+40
 264 0058 FFF7FEFF 		bl	SW_Tx_UART_PutString
 265              	.LVL26:
 256:main.c        ****             break; 
 266              		.loc 1 256 0
 267 005c 06E0     		b	.L14
 268              	.L26:
 257:main.c        ****         case 10: 
 258:main.c        ****             SW_Tx_UART_PutString("Button * pressed"); 
 269              		.loc 1 258 0
 270 005e 1048     		ldr	r0, .L28+44
 271 0060 FFF7FEFF 		bl	SW_Tx_UART_PutString
 272              	.LVL27:
 259:main.c        ****             break; 
 273              		.loc 1 259 0
 274 0064 02E0     		b	.L14
 275              	.L27:
 260:main.c        ****         case 11: 
 261:main.c        ****             SW_Tx_UART_PutString("Button # pressed"); 
 276              		.loc 1 261 0
 277 0066 0F48     		ldr	r0, .L28+48
 278 0068 FFF7FEFF 		bl	SW_Tx_UART_PutString
 279              	.LVL28:
 280              	.L14:
 262:main.c        ****             break; 
 263:main.c        ****         default: 
 264:main.c        ****             break; 
 265:main.c        ****     } 
 266:main.c        ****     SW_Tx_UART_PutCRLF(); 
 281              		.loc 1 266 0
 282 006c FFF7FEFF 		bl	SW_Tx_UART_PutCRLF
 283              	.LVL29:
 267:main.c        **** } 
 284              		.loc 1 267 0
 285              		@ sp needed
 286 0070 10BD     		pop	{r4, pc}
 287              	.L29:
 288 0072 C046     		.align	2
 289              	.L28:
 290 0074 00000000 		.word	.L16
 291 0078 00000000 		.word	.LC4
 292 007c 14000000 		.word	.LC6
 293 0080 28000000 		.word	.LC8
 294 0084 3C000000 		.word	.LC10
 295 0088 50000000 		.word	.LC12
 296 008c 64000000 		.word	.LC14
 297 0090 78000000 		.word	.LC16
ARM GAS  C:\Users\User\AppData\Local\Temp\ccQrzrT8.s 			page 11


 298 0094 8C000000 		.word	.LC18
 299 0098 A0000000 		.word	.LC20
 300 009c B4000000 		.word	.LC22
 301 00a0 C8000000 		.word	.LC24
 302 00a4 DC000000 		.word	.LC26
 303              		.cfi_endproc
 304              	.LFE38:
 305              		.size	printButtonName, .-printButtonName
 306              		.section	.text.checkPassword,"ax",%progbits
 307              		.align	2
 308              		.code	16
 309              		.thumb_func
 310              		.type	checkPassword, %function
 311              	checkPassword:
 312              	.LFB36:
 125:main.c        ****     uint8_t correct = 1; 
 313              		.loc 1 125 0
 314              		.cfi_startproc
 315              		@ args = 0, pretend = 0, frame = 0
 316              		@ frame_needed = 0, uses_anonymous_args = 0
 317 0000 10B5     		push	{r4, lr}
 318              		.cfi_def_cfa_offset 8
 319              		.cfi_offset 4, -8
 320              		.cfi_offset 14, -4
 321              	.LVL30:
 322              	.LBB5:
 127:main.c        ****     { 
 323              		.loc 1 127 0
 324 0002 0023     		movs	r3, #0
 325 0004 06E0     		b	.L31
 326              	.LVL31:
 327              	.L33:
 129:main.c        ****         { 
 328              		.loc 1 129 0
 329 0006 184A     		ldr	r2, .L37
 330 0008 D15C     		ldrb	r1, [r2, r3]
 331 000a 184A     		ldr	r2, .L37+4
 332 000c D25C     		ldrb	r2, [r2, r3]
 333 000e 9142     		cmp	r1, r2
 334 0010 04D1     		bne	.L36
 127:main.c        ****     { 
 335              		.loc 1 127 0 discriminator 2
 336 0012 0133     		adds	r3, r3, #1
 337              	.LVL32:
 338              	.L31:
 127:main.c        ****     { 
 339              		.loc 1 127 0 is_stmt 0 discriminator 1
 340 0014 022B     		cmp	r3, #2
 341 0016 F6DD     		ble	.L33
 342              	.LBE5:
 126:main.c        ****     for(int i = 0; i < PASSWORD_LENGTH; i++) 
 343              		.loc 1 126 0 is_stmt 1
 344 0018 0123     		movs	r3, #1
 345              	.LVL33:
 346              	.LBB6:
 347 001a 00E0     		b	.L32
 348              	.LVL34:
ARM GAS  C:\Users\User\AppData\Local\Temp\ccQrzrT8.s 			page 12


 349              	.L36:
 131:main.c        ****             break; 
 350              		.loc 1 131 0
 351 001c 0023     		movs	r3, #0
 352              	.LVL35:
 353              	.L32:
 354              	.LBE6:
 136:main.c        ****     { 
 355              		.loc 1 136 0
 356 001e 002B     		cmp	r3, #0
 357 0020 15D0     		beq	.L34
 138:main.c        ****         SW_Tx_UART_PutCRLF(); 
 358              		.loc 1 138 0
 359 0022 1348     		ldr	r0, .L37+8
 360 0024 FFF7FEFF 		bl	SW_Tx_UART_PutString
 361              	.LVL36:
 139:main.c        ****         password_locked = 0; 
 362              		.loc 1 139 0
 363 0028 FFF7FEFF 		bl	SW_Tx_UART_PutCRLF
 364              	.LVL37:
 140:main.c        ****         // ąæč¢ą╗ąĖą╣ čüą▓č¢čéą╗ąŠą┤č¢ąŠą┤ ą┐čĆąĖ čĆąŠąĘą▒ą╗ąŠą║čāą▓ą░ąĮąĮč¢ 
 365              		.loc 1 140 0
 366 002c 0022     		movs	r2, #0
 367 002e 114B     		ldr	r3, .L37+12
 368 0030 1A73     		strb	r2, [r3, #12]
 142:main.c        ****         LED_G_Write(0); 
 369              		.loc 1 142 0
 370 0032 0020     		movs	r0, #0
 371 0034 FFF7FEFF 		bl	LED_R_Write
 372              	.LVL38:
 143:main.c        ****         LED_B_Write(0); 
 373              		.loc 1 143 0
 374 0038 0020     		movs	r0, #0
 375 003a FFF7FEFF 		bl	LED_G_Write
 376              	.LVL39:
 144:main.c        ****         CyDelay(1000); 
 377              		.loc 1 144 0
 378 003e 0020     		movs	r0, #0
 379 0040 FFF7FEFF 		bl	LED_B_Write
 380              	.LVL40:
 145:main.c        ****     } 
 381              		.loc 1 145 0
 382 0044 FA20     		movs	r0, #250
 383 0046 8000     		lsls	r0, r0, #2
 384 0048 FFF7FEFF 		bl	CyDelay
 385              	.LVL41:
 386 004c 07E0     		b	.L35
 387              	.LVL42:
 388              	.L34:
 149:main.c        ****         SW_Tx_UART_PutCRLF(); 
 389              		.loc 1 149 0
 390 004e 0A48     		ldr	r0, .L37+16
 391 0050 FFF7FEFF 		bl	SW_Tx_UART_PutString
 392              	.LVL43:
 150:main.c        ****         password_locked = 1; 
 393              		.loc 1 150 0
 394 0054 FFF7FEFF 		bl	SW_Tx_UART_PutCRLF
ARM GAS  C:\Users\User\AppData\Local\Temp\ccQrzrT8.s 			page 13


 395              	.LVL44:
 151:main.c        ****     } 
 396              		.loc 1 151 0
 397 0058 0122     		movs	r2, #1
 398 005a 064B     		ldr	r3, .L37+12
 399 005c 1A73     		strb	r2, [r3, #12]
 400              	.L35:
 154:main.c        **** } 
 401              		.loc 1 154 0
 402 005e 0022     		movs	r2, #0
 403 0060 014B     		ldr	r3, .L37
 404 0062 DA70     		strb	r2, [r3, #3]
 155:main.c        ****  
 405              		.loc 1 155 0
 406              		@ sp needed
 407 0064 10BD     		pop	{r4, pc}
 408              	.L38:
 409 0066 C046     		.align	2
 410              	.L37:
 411 0068 00000000 		.word	.LANCHOR2
 412 006c 88000000 		.word	.LANCHOR3
 413 0070 F0000000 		.word	.LC30
 414 0074 00000000 		.word	.LANCHOR1
 415 0078 00010000 		.word	.LC33
 416              		.cfi_endproc
 417              	.LFE36:
 418              		.size	checkPassword, .-checkPassword
 419              		.section	.text.FourDigit74HC595_sendData,"ax",%progbits
 420              		.align	2
 421              		.code	16
 422              		.thumb_func
 423              		.type	FourDigit74HC595_sendData, %function
 424              	FourDigit74HC595_sendData:
 425              	.LFB32:
  22:main.c        ****     for(uint8_t i = 0; i < 8; i++) {          
 426              		.loc 1 22 0
 427              		.cfi_startproc
 428              		@ args = 0, pretend = 0, frame = 0
 429              		@ frame_needed = 0, uses_anonymous_args = 0
 430              	.LVL45:
 431 0000 70B5     		push	{r4, r5, r6, lr}
 432              		.cfi_def_cfa_offset 16
 433              		.cfi_offset 4, -16
 434              		.cfi_offset 5, -12
 435              		.cfi_offset 6, -8
 436              		.cfi_offset 14, -4
 437 0002 0500     		movs	r5, r0
 438              	.LVL46:
 439              	.LBB7:
  23:main.c        ****         if(data & (0x80 >> i))  
 440              		.loc 1 23 0
 441 0004 0024     		movs	r4, #0
 442 0006 12E0     		b	.L40
 443              	.LVL47:
 444              	.L43:
  24:main.c        ****         {  
 445              		.loc 1 24 0
ARM GAS  C:\Users\User\AppData\Local\Temp\ccQrzrT8.s 			page 14


 446 0008 8023     		movs	r3, #128
 447 000a 2341     		asrs	r3, r3, r4
 448 000c 2B42     		tst	r3, r5
 449 000e 03D0     		beq	.L41
  26:main.c        ****         }          
 450              		.loc 1 26 0
 451 0010 0120     		movs	r0, #1
 452 0012 FFF7FEFF 		bl	Pin_DO_Write
 453              	.LVL48:
 454 0016 02E0     		b	.L42
 455              	.L41:
  30:main.c        ****         }  
 456              		.loc 1 30 0
 457 0018 0020     		movs	r0, #0
 458 001a FFF7FEFF 		bl	Pin_DO_Write
 459              	.LVL49:
 460              	.L42:
  32:main.c        ****         Pin_CLK_Write(0);  
 461              		.loc 1 32 0 discriminator 2
 462 001e 0120     		movs	r0, #1
 463 0020 FFF7FEFF 		bl	Pin_CLK_Write
 464              	.LVL50:
  33:main.c        ****     }  
 465              		.loc 1 33 0 discriminator 2
 466 0024 0020     		movs	r0, #0
 467 0026 FFF7FEFF 		bl	Pin_CLK_Write
 468              	.LVL51:
  23:main.c        ****         if(data & (0x80 >> i))  
 469              		.loc 1 23 0 discriminator 2
 470 002a 0134     		adds	r4, r4, #1
 471              	.LVL52:
 472 002c E4B2     		uxtb	r4, r4
 473              	.LVL53:
 474              	.L40:
  23:main.c        ****         if(data & (0x80 >> i))  
 475              		.loc 1 23 0 is_stmt 0 discriminator 1
 476 002e 072C     		cmp	r4, #7
 477 0030 EAD9     		bls	.L43
 478              	.LBE7:
  35:main.c        ****  
 479              		.loc 1 35 0 is_stmt 1
 480              		@ sp needed
 481              	.LVL54:
 482 0032 70BD     		pop	{r4, r5, r6, pc}
 483              		.cfi_endproc
 484              	.LFE32:
 485              		.size	FourDigit74HC595_sendData, .-FourDigit74HC595_sendData
 486              		.section	.text.FourDigit74HC595_sendOneDigit,"ax",%progbits
 487              		.align	2
 488              		.code	16
 489              		.thumb_func
 490              		.type	FourDigit74HC595_sendOneDigit, %function
 491              	FourDigit74HC595_sendOneDigit:
 492              	.LFB33:
  39:main.c        ****     if(position >= 8)   // out of range, clear 7-segment display  
 493              		.loc 1 39 0
 494              		.cfi_startproc
ARM GAS  C:\Users\User\AppData\Local\Temp\ccQrzrT8.s 			page 15


 495              		@ args = 0, pretend = 0, frame = 0
 496              		@ frame_needed = 0, uses_anonymous_args = 0
 497              	.LVL55:
 498 0000 70B5     		push	{r4, r5, r6, lr}
 499              		.cfi_def_cfa_offset 16
 500              		.cfi_offset 4, -16
 501              		.cfi_offset 5, -12
 502              		.cfi_offset 6, -8
 503              		.cfi_offset 14, -4
 504 0002 0500     		movs	r5, r0
 505 0004 0C00     		movs	r4, r1
 506 0006 1600     		movs	r6, r2
  40:main.c        ****     {  
 507              		.loc 1 40 0
 508 0008 0728     		cmp	r0, #7
 509 000a 05D9     		bls	.L45
  42:main.c        ****         FourDigit74HC595_sendData(0xFF);  
 510              		.loc 1 42 0
 511 000c FF20     		movs	r0, #255
 512              	.LVL56:
 513 000e FFF7FEFF 		bl	FourDigit74HC595_sendData
 514              	.LVL57:
  43:main.c        ****     }  
 515              		.loc 1 43 0
 516 0012 FF20     		movs	r0, #255
 517 0014 FFF7FEFF 		bl	FourDigit74HC595_sendData
 518              	.LVL58:
 519              	.L45:
  45:main.c        ****     if(dot) // if dot is needed  
 520              		.loc 1 45 0
 521 0018 0120     		movs	r0, #1
 522 001a A840     		lsls	r0, r0, r5
 523 001c C043     		mvns	r0, r0
 524 001e C0B2     		uxtb	r0, r0
 525 0020 FFF7FEFF 		bl	FourDigit74HC595_sendData
 526              	.LVL59:
  46:main.c        ****     {  
 527              		.loc 1 46 0
 528 0024 002E     		cmp	r6, #0
 529 0026 07D0     		beq	.L46
  48:main.c        ****     }     else  
 530              		.loc 1 48 0
 531 0028 094B     		ldr	r3, .L48
 532 002a 1C19     		adds	r4, r3, r4
 533 002c 2379     		ldrb	r3, [r4, #4]
 534 002e 7F20     		movs	r0, #127
 535 0030 1840     		ands	r0, r3
 536 0032 FFF7FEFF 		bl	FourDigit74HC595_sendData
 537              	.LVL60:
 538 0036 04E0     		b	.L47
 539              	.L46:
  51:main.c        ****     }  
 540              		.loc 1 51 0
 541 0038 054B     		ldr	r3, .L48
 542 003a 1C19     		adds	r4, r3, r4
 543 003c 2079     		ldrb	r0, [r4, #4]
 544 003e FFF7FEFF 		bl	FourDigit74HC595_sendData
ARM GAS  C:\Users\User\AppData\Local\Temp\ccQrzrT8.s 			page 16


 545              	.LVL61:
 546              	.L47:
  53:main.c        ****     Pin_Latch_Write(0);  
 547              		.loc 1 53 0
 548 0042 0120     		movs	r0, #1
 549 0044 FFF7FEFF 		bl	Pin_Latch_Write
 550              	.LVL62:
  54:main.c        **** }  
 551              		.loc 1 54 0
 552 0048 0020     		movs	r0, #0
 553 004a FFF7FEFF 		bl	Pin_Latch_Write
 554              	.LVL63:
  55:main.c        ****  
 555              		.loc 1 55 0
 556              		@ sp needed
 557 004e 70BD     		pop	{r4, r5, r6, pc}
 558              	.L49:
 559              		.align	2
 560              	.L48:
 561 0050 88000000 		.word	.LANCHOR3
 562              		.cfi_endproc
 563              	.LFE33:
 564              		.size	FourDigit74HC595_sendOneDigit, .-FourDigit74HC595_sendOneDigit
 565              		.section	.text.setLEDColor,"ax",%progbits
 566              		.align	2
 567              		.code	16
 568              		.thumb_func
 569              		.type	setLEDColor, %function
 570              	setLEDColor:
 571              	.LFB37:
 159:main.c        ****     switch(button_value) 
 572              		.loc 1 159 0
 573              		.cfi_startproc
 574              		@ args = 0, pretend = 0, frame = 0
 575              		@ frame_needed = 0, uses_anonymous_args = 0
 576              	.LVL64:
 577 0000 10B5     		push	{r4, lr}
 578              		.cfi_def_cfa_offset 8
 579              		.cfi_offset 4, -8
 580              		.cfi_offset 14, -4
 581 0002 0400     		movs	r4, r0
 160:main.c        ****     { 
 582              		.loc 1 160 0
 583 0004 0B28     		cmp	r0, #11
 584 0006 62D8     		bhi	.L51
 585 0008 8300     		lsls	r3, r0, #2
 586 000a 384A     		ldr	r2, .L61
 587 000c D358     		ldr	r3, [r2, r3]
 588 000e 9F46     		mov	pc, r3
 589              		.section	.rodata
 590              		.align	2
 591              	.L53:
 592 0030 92000000 		.word	.L52
 593 0034 10000000 		.word	.L54
 594 0038 2E000000 		.word	.L55
 595 003c 4C000000 		.word	.L56
 596 0040 74000000 		.word	.L57
ARM GAS  C:\Users\User\AppData\Local\Temp\ccQrzrT8.s 			page 17


 597 0044 92000000 		.word	.L52
 598 0048 B0000000 		.word	.L58
 599 004c 10000000 		.word	.L54
 600 0050 2E000000 		.word	.L55
 601 0054 56000000 		.word	.L59
 602 0058 74000000 		.word	.L57
 603 005c B0000000 		.word	.L58
 604              		.section	.text.setLEDColor
 605              	.L54:
 164:main.c        ****             LED_R_Write(0); 
 606              		.loc 1 164 0
 607 0010 0022     		movs	r2, #0
 608 0012 0100     		movs	r1, r0
 609 0014 0020     		movs	r0, #0
 610              	.LVL65:
 611 0016 FFF7FEFF 		bl	FourDigit74HC595_sendOneDigit
 612              	.LVL66:
 165:main.c        ****             LED_G_Write(1); 
 613              		.loc 1 165 0
 614 001a 0020     		movs	r0, #0
 615 001c FFF7FEFF 		bl	LED_R_Write
 616              	.LVL67:
 166:main.c        ****             LED_B_Write(1); 
 617              		.loc 1 166 0
 618 0020 0120     		movs	r0, #1
 619 0022 FFF7FEFF 		bl	LED_G_Write
 620              	.LVL68:
 167:main.c        ****             break; 
 621              		.loc 1 167 0
 622 0026 0120     		movs	r0, #1
 623 0028 FFF7FEFF 		bl	LED_B_Write
 624              	.LVL69:
 168:main.c        ****              
 625              		.loc 1 168 0
 626 002c 5DE0     		b	.L50
 627              	.LVL70:
 628              	.L55:
 173:main.c        ****             LED_R_Write(1); 
 629              		.loc 1 173 0
 630 002e 0022     		movs	r2, #0
 631 0030 0100     		movs	r1, r0
 632 0032 0020     		movs	r0, #0
 633              	.LVL71:
 634 0034 FFF7FEFF 		bl	FourDigit74HC595_sendOneDigit
 635              	.LVL72:
 174:main.c        ****             LED_G_Write(0); 
 636              		.loc 1 174 0
 637 0038 0120     		movs	r0, #1
 638 003a FFF7FEFF 		bl	LED_R_Write
 639              	.LVL73:
 175:main.c        ****             LED_B_Write(1); 
 640              		.loc 1 175 0
 641 003e 0020     		movs	r0, #0
 642 0040 FFF7FEFF 		bl	LED_G_Write
 643              	.LVL74:
 176:main.c        ****             break; 
 644              		.loc 1 176 0
ARM GAS  C:\Users\User\AppData\Local\Temp\ccQrzrT8.s 			page 18


 645 0044 0120     		movs	r0, #1
 646 0046 FFF7FEFF 		bl	LED_B_Write
 647              	.LVL75:
 177:main.c        ****              
 648              		.loc 1 177 0
 649 004a 4EE0     		b	.L50
 650              	.LVL76:
 651              	.L56:
 180:main.c        ****         case 9: 
 652              		.loc 1 180 0
 653 004c 0022     		movs	r2, #0
 654 004e 0321     		movs	r1, #3
 655 0050 0020     		movs	r0, #0
 656              	.LVL77:
 657 0052 FFF7FEFF 		bl	FourDigit74HC595_sendOneDigit
 658              	.LVL78:
 659              	.L59:
 182:main.c        ****             LED_R_Write(1); 
 660              		.loc 1 182 0
 661 0056 0022     		movs	r2, #0
 662 0058 2100     		movs	r1, r4
 663 005a 0020     		movs	r0, #0
 664 005c FFF7FEFF 		bl	FourDigit74HC595_sendOneDigit
 665              	.LVL79:
 183:main.c        ****             LED_G_Write(1); 
 666              		.loc 1 183 0
 667 0060 0120     		movs	r0, #1
 668 0062 FFF7FEFF 		bl	LED_R_Write
 669              	.LVL80:
 184:main.c        ****             LED_B_Write(0); 
 670              		.loc 1 184 0
 671 0066 0120     		movs	r0, #1
 672 0068 FFF7FEFF 		bl	LED_G_Write
 673              	.LVL81:
 185:main.c        ****             break; 
 674              		.loc 1 185 0
 675 006c 0020     		movs	r0, #0
 676 006e FFF7FEFF 		bl	LED_B_Write
 677              	.LVL82:
 186:main.c        ****              
 678              		.loc 1 186 0
 679 0072 3AE0     		b	.L50
 680              	.LVL83:
 681              	.L57:
 190:main.c        ****             LED_R_Write(0); 
 682              		.loc 1 190 0
 683 0074 0022     		movs	r2, #0
 684 0076 0100     		movs	r1, r0
 685 0078 0020     		movs	r0, #0
 686              	.LVL84:
 687 007a FFF7FEFF 		bl	FourDigit74HC595_sendOneDigit
 688              	.LVL85:
 191:main.c        ****             LED_G_Write(0); 
 689              		.loc 1 191 0
 690 007e 0020     		movs	r0, #0
 691 0080 FFF7FEFF 		bl	LED_R_Write
 692              	.LVL86:
ARM GAS  C:\Users\User\AppData\Local\Temp\ccQrzrT8.s 			page 19


 192:main.c        ****             LED_B_Write(1); 
 693              		.loc 1 192 0
 694 0084 0020     		movs	r0, #0
 695 0086 FFF7FEFF 		bl	LED_G_Write
 696              	.LVL87:
 193:main.c        ****             break; 
 697              		.loc 1 193 0
 698 008a 0120     		movs	r0, #1
 699 008c FFF7FEFF 		bl	LED_B_Write
 700              	.LVL88:
 194:main.c        ****              
 701              		.loc 1 194 0
 702 0090 2BE0     		b	.L50
 703              	.LVL89:
 704              	.L52:
 198:main.c        ****             LED_R_Write(0); 
 705              		.loc 1 198 0
 706 0092 0022     		movs	r2, #0
 707 0094 0100     		movs	r1, r0
 708 0096 0020     		movs	r0, #0
 709              	.LVL90:
 710 0098 FFF7FEFF 		bl	FourDigit74HC595_sendOneDigit
 711              	.LVL91:
 199:main.c        ****             LED_G_Write(1); 
 712              		.loc 1 199 0
 713 009c 0020     		movs	r0, #0
 714 009e FFF7FEFF 		bl	LED_R_Write
 715              	.LVL92:
 200:main.c        ****             LED_B_Write(0); 
 716              		.loc 1 200 0
 717 00a2 0120     		movs	r0, #1
 718 00a4 FFF7FEFF 		bl	LED_G_Write
 719              	.LVL93:
 201:main.c        ****             break; 
 720              		.loc 1 201 0
 721 00a8 0020     		movs	r0, #0
 722 00aa FFF7FEFF 		bl	LED_B_Write
 723              	.LVL94:
 202:main.c        ****              
 724              		.loc 1 202 0
 725 00ae 1CE0     		b	.L50
 726              	.LVL95:
 727              	.L58:
 206:main.c        ****             LED_R_Write(1); 
 728              		.loc 1 206 0
 729 00b0 0022     		movs	r2, #0
 730 00b2 0100     		movs	r1, r0
 731 00b4 0020     		movs	r0, #0
 732              	.LVL96:
 733 00b6 FFF7FEFF 		bl	FourDigit74HC595_sendOneDigit
 734              	.LVL97:
 207:main.c        ****             LED_G_Write(0); 
 735              		.loc 1 207 0
 736 00ba 0120     		movs	r0, #1
 737 00bc FFF7FEFF 		bl	LED_R_Write
 738              	.LVL98:
 208:main.c        ****             LED_B_Write(0); 
ARM GAS  C:\Users\User\AppData\Local\Temp\ccQrzrT8.s 			page 20


 739              		.loc 1 208 0
 740 00c0 0020     		movs	r0, #0
 741 00c2 FFF7FEFF 		bl	LED_G_Write
 742              	.LVL99:
 209:main.c        ****             break; 
 743              		.loc 1 209 0
 744 00c6 0020     		movs	r0, #0
 745 00c8 FFF7FEFF 		bl	LED_B_Write
 746              	.LVL100:
 210:main.c        ****              
 747              		.loc 1 210 0
 748 00cc 0DE0     		b	.L50
 749              	.LVL101:
 750              	.L51:
 213:main.c        ****             // Turn off LED (Black) 
 751              		.loc 1 213 0
 752 00ce 0022     		movs	r2, #0
 753 00d0 0021     		movs	r1, #0
 754 00d2 0820     		movs	r0, #8
 755              	.LVL102:
 756 00d4 FFF7FEFF 		bl	FourDigit74HC595_sendOneDigit
 757              	.LVL103:
 215:main.c        ****             LED_G_Write(1); 
 758              		.loc 1 215 0
 759 00d8 0120     		movs	r0, #1
 760 00da FFF7FEFF 		bl	LED_R_Write
 761              	.LVL104:
 216:main.c        ****             LED_B_Write(1); 
 762              		.loc 1 216 0
 763 00de 0120     		movs	r0, #1
 764 00e0 FFF7FEFF 		bl	LED_G_Write
 765              	.LVL105:
 217:main.c        ****             break; 
 766              		.loc 1 217 0
 767 00e4 0120     		movs	r0, #1
 768 00e6 FFF7FEFF 		bl	LED_B_Write
 769              	.LVL106:
 770              	.L50:
 220:main.c        ****  
 771              		.loc 1 220 0
 772              		@ sp needed
 773 00ea 10BD     		pop	{r4, pc}
 774              	.L62:
 775              		.align	2
 776              	.L61:
 777 00ec 30000000 		.word	.L53
 778              		.cfi_endproc
 779              	.LFE37:
 780              		.size	setLEDColor, .-setLEDColor
 781              		.section	.text.main,"ax",%progbits
 782              		.align	2
 783              		.global	main
 784              		.code	16
 785              		.thumb_func
 786              		.type	main, %function
 787              	main:
 788              	.LFB39:
ARM GAS  C:\Users\User\AppData\Local\Temp\ccQrzrT8.s 			page 21


 268:main.c        ****    
 269:main.c        **** int main(void)  
 270:main.c        **** {  
 789              		.loc 1 270 0
 790              		.cfi_startproc
 791              		@ args = 0, pretend = 0, frame = 0
 792              		@ frame_needed = 0, uses_anonymous_args = 0
 793 0000 70B5     		push	{r4, r5, r6, lr}
 794              		.cfi_def_cfa_offset 16
 795              		.cfi_offset 4, -16
 796              		.cfi_offset 5, -12
 797              		.cfi_offset 6, -8
 798              		.cfi_offset 14, -4
 271:main.c        ****     CyGlobalIntEnable; /* Enable global interrupts. */  
 799              		.loc 1 271 0
 800              		.syntax divided
 801              	@ 271 "main.c" 1
 802 0002 62B6     		CPSIE   i
 803              	@ 0 "" 2
 272:main.c        ****     FourDigit74HC595_sendOneDigit(0, 0x88, 1); 
 804              		.loc 1 272 0
 805              		.thumb
 806              		.syntax unified
 807 0004 0122     		movs	r2, #1
 808 0006 8821     		movs	r1, #136
 809 0008 0020     		movs	r0, #0
 810 000a FFF7FEFF 		bl	FourDigit74HC595_sendOneDigit
 811              	.LVL107:
 273:main.c        ****     SW_Tx_UART_Start();  
 812              		.loc 1 273 0
 813 000e FFF7FEFF 		bl	SW_Tx_UART_Start
 814              	.LVL108:
 274:main.c        ****     SW_Tx_UART_PutCRLF();  
 815              		.loc 1 274 0
 816 0012 FFF7FEFF 		bl	SW_Tx_UART_PutCRLF
 817              	.LVL109:
 275:main.c        ****     SW_Tx_UART_PutString("Software Transmit UART");  
 818              		.loc 1 275 0
 819 0016 4448     		ldr	r0, .L84
 820 0018 FFF7FEFF 		bl	SW_Tx_UART_PutString
 821              	.LVL110:
 276:main.c        ****     SW_Tx_UART_PutCRLF(); 
 822              		.loc 1 276 0
 823 001c FFF7FEFF 		bl	SW_Tx_UART_PutCRLF
 824              	.LVL111:
 277:main.c        ****     SW_Tx_UART_PutString("Enter password to unlock"); 
 825              		.loc 1 277 0
 826 0020 4248     		ldr	r0, .L84+4
 827 0022 FFF7FEFF 		bl	SW_Tx_UART_PutString
 828              	.LVL112:
 278:main.c        ****     SW_Tx_UART_PutCRLF(); 
 829              		.loc 1 278 0
 830 0026 FFF7FEFF 		bl	SW_Tx_UART_PutCRLF
 831              	.LVL113:
 279:main.c        ****   
 280:main.c        ****     initMatrix(); 
 832              		.loc 1 280 0
ARM GAS  C:\Users\User\AppData\Local\Temp\ccQrzrT8.s 			page 22


 833 002a FFF7FEFF 		bl	initMatrix
 834              	.LVL114:
 281:main.c        ****      
 282:main.c        ****     uint8_t last_state = 255; // ąØč¢čÅą║ą░ ą║ąĮąŠą┐ą║ą░ ąĮąĄ ąĮą░čéąĖčüąĮčāčéą░ 
 283:main.c        ****     uint8_t button_pressed = 0; 
 284:main.c        ****      
 285:main.c        ****     // ą¤ąŠčćą░čéą║ąŠą▓ąĖą╣ čüčéą░ąĮ - ą▒č¢ą╗ąĖą╣ čüą▓č¢čéą╗ąŠą┤č¢ąŠą┤ (čüąĖčüčéąĄą╝ą░ ąĘą░ą▒ą╗ąŠą║
 286:main.c        ****     LED_R_Write(0); 
 835              		.loc 1 286 0
 836 002e 0020     		movs	r0, #0
 837 0030 FFF7FEFF 		bl	LED_R_Write
 838              	.LVL115:
 287:main.c        ****     LED_G_Write(0); 
 839              		.loc 1 287 0
 840 0034 0020     		movs	r0, #0
 841 0036 FFF7FEFF 		bl	LED_G_Write
 842              	.LVL116:
 288:main.c        ****     LED_B_Write(0); 
 843              		.loc 1 288 0
 844 003a 0020     		movs	r0, #0
 845 003c FFF7FEFF 		bl	LED_B_Write
 846              	.LVL117:
 282:main.c        ****     uint8_t button_pressed = 0; 
 847              		.loc 1 282 0
 848 0040 FF26     		movs	r6, #255
 849              	.LVL118:
 850              	.L77:
 289:main.c        ****      
 290:main.c        ****     for(;;)  
 291:main.c        ****     {       
 292:main.c        ****         readMatrix(); 
 851              		.loc 1 292 0
 852 0042 FFF7FEFF 		bl	readMatrix
 853              	.LVL119:
 854              	.LBB8:
 293:main.c        ****         button_pressed = 0; 
 294:main.c        ****          
 295:main.c        ****         // ąĪą║ą░ąĮčāą▓ą░ąĮąĮčÅ ą▓čüč¢čģ ą║ąĮąŠą┐ąŠą║ 
 296:main.c        ****         for(int row = 0; row < 4; row++) 
 855              		.loc 1 296 0
 856 0046 0025     		movs	r5, #0
 857              	.LBE8:
 293:main.c        ****         button_pressed = 0; 
 858              		.loc 1 293 0
 859 0048 0020     		movs	r0, #0
 860              	.LBB13:
 861              		.loc 1 296 0
 862 004a 46E0     		b	.L64
 863              	.LVL120:
 864              	.L72:
 865              	.LBB9:
 297:main.c        ****         { 
 298:main.c        ****             for(int col = 0; col < 3; col++) 
 299:main.c        ****             { 
 300:main.c        ****                 if(keys[row][col] == 0) // ąÜąĮąŠą┐ą║ą░ ąĮą░čéąĖčüąĮčāčéą░ 
 866              		.loc 1 300 0
 867 004c 6B00     		lsls	r3, r5, #1
ARM GAS  C:\Users\User\AppData\Local\Temp\ccQrzrT8.s 			page 23


 868 004e 5B19     		adds	r3, r3, r5
 869 0050 3749     		ldr	r1, .L84+8
 870 0052 CB18     		adds	r3, r1, r3
 871 0054 9B5C     		ldrb	r3, [r3, r2]
 872 0056 002B     		cmp	r3, #0
 873 0058 32D1     		bne	.L65
 874              	.LBB10:
 301:main.c        ****                 { 
 302:main.c        ****                     uint8_t button_value = (row == 3 && col == 1) ? 0 :  
 875              		.loc 1 302 0
 876 005a 032D     		cmp	r5, #3
 877 005c 01D1     		bne	.L66
 878              		.loc 1 302 0 is_stmt 0 discriminator 2
 879 005e 012A     		cmp	r2, #1
 880 0060 0DD0     		beq	.L78
 881              	.L66:
 882              		.loc 1 302 0 discriminator 3
 883 0062 032D     		cmp	r5, #3
 884 0064 01D1     		bne	.L68
 303:main.c        ****                                           (row == 3 && col == 0) ? 10 : 
 885              		.loc 1 303 0 is_stmt 1
 886 0066 002A     		cmp	r2, #0
 887 0068 0BD0     		beq	.L79
 888              	.L68:
 302:main.c        ****                                           (row == 3 && col == 0) ? 10 : 
 889              		.loc 1 302 0 discriminator 5
 890 006a 032D     		cmp	r5, #3
 891 006c 01D1     		bne	.L69
 304:main.c        ****                                           (row == 3 && col == 2) ? 11 : 
 892              		.loc 1 304 0
 893 006e 022A     		cmp	r2, #2
 894 0070 09D0     		beq	.L80
 895              	.L69:
 302:main.c        ****                                           (row == 3 && col == 0) ? 10 : 
 896              		.loc 1 302 0 discriminator 6
 897 0072 6C00     		lsls	r4, r5, #1
 898 0074 2C19     		adds	r4, r5, r4
 899 0076 A218     		adds	r2, r4, r2
 900              	.LVL121:
 901 0078 0132     		adds	r2, r2, #1
 902 007a D4B2     		uxtb	r4, r2
 903 007c 04E0     		b	.L67
 904              	.LVL122:
 905              	.L78:
 302:main.c        ****                                           (row == 3 && col == 0) ? 10 : 
 906              		.loc 1 302 0 is_stmt 0
 907 007e 0024     		movs	r4, #0
 908 0080 02E0     		b	.L67
 909              	.L79:
 910 0082 0A24     		movs	r4, #10
 911 0084 00E0     		b	.L67
 912              	.L80:
 913 0086 0B24     		movs	r4, #11
 914              	.LVL123:
 915              	.L67:
 305:main.c        ****                                           (row * 3 + col + 1); 
 306:main.c        ****                      
ARM GAS  C:\Users\User\AppData\Local\Temp\ccQrzrT8.s 			page 24


 307:main.c        ****                     if(last_state != button_value) 
 916              		.loc 1 307 0 is_stmt 1 discriminator 12
 917 0088 A642     		cmp	r6, r4
 918 008a 1FD0     		beq	.L81
 919              	.LVL124:
 308:main.c        ****                     { 
 309:main.c        ****                         last_state = button_value; 
 310:main.c        ****                         printButtonName(button_value); 
 920              		.loc 1 310 0
 921 008c 2000     		movs	r0, r4
 922              	.LVL125:
 923 008e FFF7FEFF 		bl	printButtonName
 924              	.LVL126:
 311:main.c        ****                          
 312:main.c        ****                         // ą»ą║čēąŠ čüąĖčüčéąĄą╝ą░ ąĘą░ą▒ą╗ąŠą║ąŠą▓ą░ąĮą░, ąĘą▒ąĖčĆą░čöą╝ąŠ ą┐ą░čĆą
 313:main.c        ****                         if(password_locked) 
 925              		.loc 1 313 0
 926 0092 274B     		ldr	r3, .L84+8
 927 0094 1B7B     		ldrb	r3, [r3, #12]
 928 0096 002B     		cmp	r3, #0
 929 0098 0CD0     		beq	.L71
 314:main.c        ****                         { 
 315:main.c        ****                             password_buffer[password_index] = button_value; 
 930              		.loc 1 315 0
 931 009a 264A     		ldr	r2, .L84+12
 932 009c D378     		ldrb	r3, [r2, #3]
 933 009e D454     		strb	r4, [r2, r3]
 316:main.c        ****                             password_index++; 
 934              		.loc 1 316 0
 935 00a0 0133     		adds	r3, r3, #1
 936 00a2 DBB2     		uxtb	r3, r3
 937 00a4 D370     		strb	r3, [r2, #3]
 317:main.c        ****                             if(password_index >= PASSWORD_LENGTH) 
 938              		.loc 1 317 0
 939 00a6 022B     		cmp	r3, #2
 940 00a8 12D9     		bls	.L82
 318:main.c        ****                             { 
 319:main.c        ****                                 checkPassword(); 
 941              		.loc 1 319 0
 942 00aa FFF7FEFF 		bl	checkPassword
 943              	.LVL127:
 309:main.c        ****                         printButtonName(button_value); 
 944              		.loc 1 309 0
 945 00ae 2600     		movs	r6, r4
 320:main.c        ****                             } 
 321:main.c        ****                         } 
 322:main.c        ****                         else 
 323:main.c        ****                         { 
 324:main.c        ****                             // ąĪąĖčüčéąĄą╝ą░ čĆąŠąĘą▒ą╗ąŠą║ąŠą▓ą░ąĮą░, ąĘą╝č¢ąĮčÄčöą╝ąŠ ą║ąŠą╗č¢čĆ
 325:main.c        ****                             setLEDColor(button_value); 
 326:main.c        ****                             
 327:main.c        ****                         } 
 328:main.c        ****                     } 
 329:main.c        ****                     button_pressed = 1; 
 946              		.loc 1 329 0
 947 00b0 0120     		movs	r0, #1
 948 00b2 0FE0     		b	.L70
ARM GAS  C:\Users\User\AppData\Local\Temp\ccQrzrT8.s 			page 25


 949              	.L71:
 325:main.c        ****                             
 950              		.loc 1 325 0
 951 00b4 2000     		movs	r0, r4
 952 00b6 FFF7FEFF 		bl	setLEDColor
 953              	.LVL128:
 309:main.c        ****                         printButtonName(button_value); 
 954              		.loc 1 309 0
 955 00ba 2600     		movs	r6, r4
 956              		.loc 1 329 0
 957 00bc 0120     		movs	r0, #1
 958 00be 09E0     		b	.L70
 959              	.LVL129:
 960              	.L65:
 961              	.LBE10:
 298:main.c        ****             { 
 962              		.loc 1 298 0 discriminator 2
 963 00c0 0132     		adds	r2, r2, #1
 964              	.LVL130:
 965 00c2 00E0     		b	.L74
 966              	.LVL131:
 967              	.L83:
 968              	.LBE9:
 969 00c4 0022     		movs	r2, #0
 970              	.L74:
 971              	.LVL132:
 972              	.LBB12:
 298:main.c        ****             { 
 973              		.loc 1 298 0 is_stmt 0 discriminator 1
 974 00c6 022A     		cmp	r2, #2
 975 00c8 C0DD     		ble	.L72
 976 00ca 03E0     		b	.L70
 977              	.LVL133:
 978              	.L81:
 979              	.LBB11:
 980              		.loc 1 329 0 is_stmt 1
 981 00cc 0120     		movs	r0, #1
 982              	.LVL134:
 983 00ce 01E0     		b	.L70
 984              	.LVL135:
 985              	.L82:
 309:main.c        ****                         printButtonName(button_value); 
 986              		.loc 1 309 0
 987 00d0 2600     		movs	r6, r4
 988              		.loc 1 329 0
 989 00d2 0120     		movs	r0, #1
 990              	.LVL136:
 991              	.L70:
 992              	.LBE11:
 993              	.LBE12:
 330:main.c        ****                     break; 
 331:main.c        ****                 } 
 332:main.c        ****             } 
 333:main.c        ****             if(button_pressed) break; 
 994              		.loc 1 333 0
 995 00d4 0028     		cmp	r0, #0
 996 00d6 02D1     		bne	.L73
ARM GAS  C:\Users\User\AppData\Local\Temp\ccQrzrT8.s 			page 26


 296:main.c        ****         { 
 997              		.loc 1 296 0 discriminator 2
 998 00d8 0135     		adds	r5, r5, #1
 999              	.LVL137:
 1000              	.L64:
 296:main.c        ****         { 
 1001              		.loc 1 296 0 is_stmt 0 discriminator 1
 1002 00da 032D     		cmp	r5, #3
 1003 00dc F2DD     		ble	.L83
 1004              	.L73:
 1005              	.LBE13:
 334:main.c        ****         } 
 335:main.c        ****          
 336:main.c        ****         // ą»ą║čēąŠ ąČąŠą┤ąĮą░ ą║ąĮąŠą┐ą║ą░ ąĮąĄ ąĮą░čéąĖčüąĮčāčéą░ 
 337:main.c        ****         if(!button_pressed) 
 1006              		.loc 1 337 0 is_stmt 1
 1007 00de 0028     		cmp	r0, #0
 1008 00e0 1ED1     		bne	.L75
 338:main.c        ****         { 
 339:main.c        ****             if(last_state != 255) 
 1009              		.loc 1 339 0
 1010 00e2 FF2E     		cmp	r6, #255
 1011 00e4 1CD0     		beq	.L75
 1012              	.LVL138:
 340:main.c        ****             { 
 341:main.c        ****                 last_state = 255; 
 342:main.c        ****                  
 343:main.c        ****                 if(password_locked) 
 1013              		.loc 1 343 0
 1014 00e6 124B     		ldr	r3, .L84+8
 1015 00e8 1B7B     		ldrb	r3, [r3, #12]
 1016 00ea 002B     		cmp	r3, #0
 1017 00ec 09D0     		beq	.L76
 344:main.c        ****                 { 
 345:main.c        ****                     // ąæč¢ą╗ąĖą╣ čüą▓č¢čéą╗ąŠą┤č¢ąŠą┤, ą║ąŠą╗ąĖ čüąĖčüčéąĄą╝ą░ ąĘą░ą▒ą╗ąŠą║ąŠą▓ą░ą
 346:main.c        ****                     LED_R_Write(0); 
 1018              		.loc 1 346 0
 1019 00ee FFF7FEFF 		bl	LED_R_Write
 1020              	.LVL139:
 347:main.c        ****                     LED_G_Write(0); 
 1021              		.loc 1 347 0
 1022 00f2 0020     		movs	r0, #0
 1023 00f4 FFF7FEFF 		bl	LED_G_Write
 1024              	.LVL140:
 348:main.c        ****                     LED_B_Write(0); 
 1025              		.loc 1 348 0
 1026 00f8 0020     		movs	r0, #0
 1027 00fa FFF7FEFF 		bl	LED_B_Write
 1028              	.LVL141:
 341:main.c        ****                  
 1029              		.loc 1 341 0
 1030 00fe FF26     		movs	r6, #255
 1031 0100 0EE0     		b	.L75
 1032              	.LVL142:
 1033              	.L76:
 349:main.c        ****                 } 
 350:main.c        ****                 else 
ARM GAS  C:\Users\User\AppData\Local\Temp\ccQrzrT8.s 			page 27


 351:main.c        ****                 { 
 352:main.c        ****                     FourDigit74HC595_sendOneDigit(8, 0, 0); 
 1034              		.loc 1 352 0
 1035 0102 0022     		movs	r2, #0
 1036 0104 0021     		movs	r1, #0
 1037 0106 0820     		movs	r0, #8
 1038              	.LVL143:
 1039 0108 FFF7FEFF 		bl	FourDigit74HC595_sendOneDigit
 1040              	.LVL144:
 353:main.c        ****                     // ąÆąĖą╝ą║ąĮčāčéąĖ čüą▓č¢čéą╗ąŠą┤č¢ąŠą┤ (Black), ą║ąŠą╗ąĖ čüąĖčüčéąĄą╝ą░ čĆąŠą
 354:main.c        ****                     LED_R_Write(1); 
 1041              		.loc 1 354 0
 1042 010c 0120     		movs	r0, #1
 1043 010e FFF7FEFF 		bl	LED_R_Write
 1044              	.LVL145:
 355:main.c        ****                     LED_G_Write(1); 
 1045              		.loc 1 355 0
 1046 0112 0120     		movs	r0, #1
 1047 0114 FFF7FEFF 		bl	LED_G_Write
 1048              	.LVL146:
 356:main.c        ****                     LED_B_Write(1); 
 1049              		.loc 1 356 0
 1050 0118 0120     		movs	r0, #1
 1051 011a FFF7FEFF 		bl	LED_B_Write
 1052              	.LVL147:
 341:main.c        ****                  
 1053              		.loc 1 341 0
 1054 011e FF26     		movs	r6, #255
 1055              	.LVL148:
 1056              	.L75:
 357:main.c        ****                 } 
 358:main.c        ****             } 
 359:main.c        ****         } 
 360:main.c        ****          
 361:main.c        ****         CyDelay(50); // Debounce delay 
 1057              		.loc 1 361 0
 1058 0120 3220     		movs	r0, #50
 1059 0122 FFF7FEFF 		bl	CyDelay
 1060              	.LVL149:
 362:main.c        ****     } 
 1061              		.loc 1 362 0
 1062 0126 8CE7     		b	.L77
 1063              	.L85:
 1064              		.align	2
 1065              	.L84:
 1066 0128 10010000 		.word	.LC37
 1067 012c 28010000 		.word	.LC39
 1068 0130 00000000 		.word	.LANCHOR1
 1069 0134 00000000 		.word	.LANCHOR2
 1070              		.cfi_endproc
 1071              	.LFE39:
 1072              		.size	main, .-main
 1073              		.section	.rodata
 1074              		.align	2
 1075              		.set	.LANCHOR0,. + 0
 1076              		.type	COLUMN_x_SetDriveMode, %object
 1077              		.size	COLUMN_x_SetDriveMode, 12
ARM GAS  C:\Users\User\AppData\Local\Temp\ccQrzrT8.s 			page 28


 1078              	COLUMN_x_SetDriveMode:
 1079 0060 00000000 		.word	COLUMN_0_SetDriveMode
 1080 0064 00000000 		.word	COLUMN_1_SetDriveMode
 1081 0068 00000000 		.word	COLUMN_2_SetDriveMode
 1082              		.type	COLUMN_x_Write, %object
 1083              		.size	COLUMN_x_Write, 12
 1084              	COLUMN_x_Write:
 1085 006c 00000000 		.word	COLUMN_0_Write
 1086 0070 00000000 		.word	COLUMN_1_Write
 1087 0074 00000000 		.word	COLUMN_2_Write
 1088              		.type	ROW_x_Read, %object
 1089              		.size	ROW_x_Read, 16
 1090              	ROW_x_Read:
 1091 0078 00000000 		.word	ROW_0_Read
 1092 007c 00000000 		.word	ROW_1_Read
 1093 0080 00000000 		.word	ROW_2_Read
 1094 0084 00000000 		.word	ROW_3_Read
 1095              		.align	2
 1096              		.set	.LANCHOR3,. + 0
 1097              		.type	PASSWORD, %object
 1098              		.size	PASSWORD, 3
 1099              	PASSWORD:
 1100 0088 01       		.byte	1
 1101 0089 02       		.byte	2
 1102 008a 03       		.byte	3
 1103 008b 00       		.space	1
 1104              		.type	LED_NUM, %object
 1105              		.size	LED_NUM, 17
 1106              	LED_NUM:
 1107 008c C0       		.byte	-64
 1108 008d F9       		.byte	-7
 1109 008e A4       		.byte	-92
 1110 008f B0       		.byte	-80
 1111 0090 99       		.byte	-103
 1112 0091 92       		.byte	-110
 1113 0092 82       		.byte	-126
 1114 0093 F8       		.byte	-8
 1115 0094 80       		.byte	-128
 1116 0095 90       		.byte	-112
 1117 0096 BF       		.byte	-65
 1118 0097 88       		.byte	-120
 1119 0098 83       		.byte	-125
 1120 0099 C6       		.byte	-58
 1121 009a A1       		.byte	-95
 1122 009b 86       		.byte	-122
 1123 009c 8E       		.byte	-114
 1124              		.data
 1125              		.align	2
 1126              		.set	.LANCHOR1,. + 0
 1127              		.type	keys, %object
 1128              		.size	keys, 12
 1129              	keys:
 1130 0000 01       		.byte	1
 1131 0001 02       		.byte	2
 1132 0002 03       		.byte	3
 1133 0003 04       		.byte	4
 1134 0004 05       		.byte	5
ARM GAS  C:\Users\User\AppData\Local\Temp\ccQrzrT8.s 			page 29


 1135 0005 06       		.byte	6
 1136 0006 07       		.byte	7
 1137 0007 08       		.byte	8
 1138 0008 09       		.byte	9
 1139 0009 0A       		.byte	10
 1140 000a 00       		.byte	0
 1141 000b 0B       		.byte	11
 1142              		.type	password_locked, %object
 1143              		.size	password_locked, 1
 1144              	password_locked:
 1145 000c 01       		.byte	1
 1146              		.section	.rodata.str1.4,"aMS",%progbits,1
 1147              		.align	2
 1148              	.LC4:
 1149 0000 42757474 		.ascii	"Button 0 pressed\000"
 1149      6F6E2030 
 1149      20707265 
 1149      73736564 
 1149      00
 1150 0011 000000   		.space	3
 1151              	.LC6:
 1152 0014 42757474 		.ascii	"Button 1 pressed\000"
 1152      6F6E2031 
 1152      20707265 
 1152      73736564 
 1152      00
 1153 0025 000000   		.space	3
 1154              	.LC8:
 1155 0028 42757474 		.ascii	"Button 2 pressed\000"
 1155      6F6E2032 
 1155      20707265 
 1155      73736564 
 1155      00
 1156 0039 000000   		.space	3
 1157              	.LC10:
 1158 003c 42757474 		.ascii	"Button 3 pressed\000"
 1158      6F6E2033 
 1158      20707265 
 1158      73736564 
 1158      00
 1159 004d 000000   		.space	3
 1160              	.LC12:
 1161 0050 42757474 		.ascii	"Button 4 pressed\000"
 1161      6F6E2034 
 1161      20707265 
 1161      73736564 
 1161      00
 1162 0061 000000   		.space	3
 1163              	.LC14:
 1164 0064 42757474 		.ascii	"Button 5 pressed\000"
 1164      6F6E2035 
 1164      20707265 
 1164      73736564 
 1164      00
 1165 0075 000000   		.space	3
 1166              	.LC16:
 1167 0078 42757474 		.ascii	"Button 6 pressed\000"
ARM GAS  C:\Users\User\AppData\Local\Temp\ccQrzrT8.s 			page 30


 1167      6F6E2036 
 1167      20707265 
 1167      73736564 
 1167      00
 1168 0089 000000   		.space	3
 1169              	.LC18:
 1170 008c 42757474 		.ascii	"Button 7 pressed\000"
 1170      6F6E2037 
 1170      20707265 
 1170      73736564 
 1170      00
 1171 009d 000000   		.space	3
 1172              	.LC20:
 1173 00a0 42757474 		.ascii	"Button 8 pressed\000"
 1173      6F6E2038 
 1173      20707265 
 1173      73736564 
 1173      00
 1174 00b1 000000   		.space	3
 1175              	.LC22:
 1176 00b4 42757474 		.ascii	"Button 9 pressed\000"
 1176      6F6E2039 
 1176      20707265 
 1176      73736564 
 1176      00
 1177 00c5 000000   		.space	3
 1178              	.LC24:
 1179 00c8 42757474 		.ascii	"Button * pressed\000"
 1179      6F6E202A 
 1179      20707265 
 1179      73736564 
 1179      00
 1180 00d9 000000   		.space	3
 1181              	.LC26:
 1182 00dc 42757474 		.ascii	"Button # pressed\000"
 1182      6F6E2023 
 1182      20707265 
 1182      73736564 
 1182      00
 1183 00ed 000000   		.space	3
 1184              	.LC30:
 1185 00f0 41636365 		.ascii	"Access allowed\000"
 1185      73732061 
 1185      6C6C6F77 
 1185      656400
 1186 00ff 00       		.space	1
 1187              	.LC33:
 1188 0100 41636365 		.ascii	"Access denied\000"
 1188      73732064 
 1188      656E6965 
 1188      6400
 1189 010e 0000     		.space	2
 1190              	.LC37:
 1191 0110 536F6674 		.ascii	"Software Transmit UART\000"
 1191      77617265 
 1191      20547261 
 1191      6E736D69 
ARM GAS  C:\Users\User\AppData\Local\Temp\ccQrzrT8.s 			page 31


 1191      74205541 
 1192 0127 00       		.space	1
 1193              	.LC39:
 1194 0128 456E7465 		.ascii	"Enter password to unlock\000"
 1194      72207061 
 1194      7373776F 
 1194      72642074 
 1194      6F20756E 
 1195              		.bss
 1196              		.align	2
 1197              		.set	.LANCHOR2,. + 0
 1198              		.type	password_buffer, %object
 1199              		.size	password_buffer, 3
 1200              	password_buffer:
 1201 0000 000000   		.space	3
 1202              		.type	password_index, %object
 1203              		.size	password_index, 1
 1204              	password_index:
 1205 0003 00       		.space	1
 1206              		.text
 1207              	.Letext0:
 1208              		.file 2 "c:\\program files (x86)\\cypress\\psoc creator\\4.4\\psoc creator\\import\\gnu\\arm\\5.4.
 1209              		.file 3 "c:\\program files (x86)\\cypress\\psoc creator\\4.4\\psoc creator\\import\\gnu\\arm\\5.4.
 1210              		.file 4 "Generated_Source\\PSoC4/cytypes.h"
 1211              		.file 5 "Generated_Source\\PSoC4/SW_Tx_UART.h"
 1212              		.file 6 "Generated_Source\\PSoC4/LED_R.h"
 1213              		.file 7 "Generated_Source\\PSoC4/LED_G.h"
 1214              		.file 8 "Generated_Source\\PSoC4/LED_B.h"
 1215              		.file 9 "Generated_Source\\PSoC4/CyLib.h"
 1216              		.file 10 "Generated_Source\\PSoC4/Pin_DO.h"
 1217              		.file 11 "Generated_Source\\PSoC4/Pin_CLK.h"
 1218              		.file 12 "Generated_Source\\PSoC4/Pin_Latch.h"