ARM GAS  C:\Users\User\AppData\Local\Temp\cchI9NZ8.s 			page 1


   1              		.syntax unified
   2              		.cpu cortex-m0
   3              		.fpu softvfp
   4              		.eabi_attribute 20, 1
   5              		.eabi_attribute 21, 1
   6              		.eabi_attribute 23, 3
   7              		.eabi_attribute 24, 1
   8              		.eabi_attribute 25, 1
   9              		.eabi_attribute 26, 1
  10              		.eabi_attribute 30, 1
  11              		.eabi_attribute 34, 0
  12              		.eabi_attribute 18, 4
  13              		.thumb
  14              		.syntax unified
  15              		.file	"main.c"
  16              		.text
  17              	.Ltext0:
  18              		.cfi_sections	.debug_frame
  19              		.section	.text.setColor,"ax",%progbits
  20              		.align	2
  21              		.global	setColor
  22              		.code	16
  23              		.thumb_func
  24              		.type	setColor, %function
  25              	setColor:
  26              	.LFB32:
  27              		.file 1 "main.c"
   1:main.c        **** #include "project.h"
   2:main.c        **** 
   3:main.c        **** void setColor(uint8 r, uint8 g, uint8 b) 
   4:main.c        **** {
  28              		.loc 1 4 0
  29              		.cfi_startproc
  30              		@ args = 0, pretend = 0, frame = 0
  31              		@ frame_needed = 0, uses_anonymous_args = 0
  32              	.LVL0:
  33 0000 70B5     		push	{r4, r5, r6, lr}
  34              		.cfi_def_cfa_offset 16
  35              		.cfi_offset 4, -16
  36              		.cfi_offset 5, -12
  37              		.cfi_offset 6, -8
  38              		.cfi_offset 14, -4
  39 0002 0D00     		movs	r5, r1
  40 0004 1400     		movs	r4, r2
   5:main.c        ****     LED_R_Write(r);
  41              		.loc 1 5 0
  42 0006 FFF7FEFF 		bl	LED_R_Write
  43              	.LVL1:
   6:main.c        ****     LED_G_Write(g);
  44              		.loc 1 6 0
  45 000a 2800     		movs	r0, r5
  46 000c FFF7FEFF 		bl	LED_G_Write
  47              	.LVL2:
   7:main.c        ****     LED_B_Write(b);
  48              		.loc 1 7 0
  49 0010 2000     		movs	r0, r4
  50 0012 FFF7FEFF 		bl	LED_B_Write
ARM GAS  C:\Users\User\AppData\Local\Temp\cchI9NZ8.s 			page 2


  51              	.LVL3:
   8:main.c        **** }
  52              		.loc 1 8 0
  53              		@ sp needed
  54 0016 70BD     		pop	{r4, r5, r6, pc}
  55              		.cfi_endproc
  56              	.LFE32:
  57              		.size	setColor, .-setColor
  58              		.section	.text.main,"ax",%progbits
  59              		.align	2
  60              		.global	main
  61              		.code	16
  62              		.thumb_func
  63              		.type	main, %function
  64              	main:
  65              	.LFB33:
   9:main.c        **** 
  10:main.c        **** int main(void)
  11:main.c        **** {
  66              		.loc 1 11 0
  67              		.cfi_startproc
  68              		@ Volatile: function does not return.
  69              		@ args = 0, pretend = 0, frame = 0
  70              		@ frame_needed = 0, uses_anonymous_args = 0
  71 0000 10B5     		push	{r4, lr}
  72              		.cfi_def_cfa_offset 8
  73              		.cfi_offset 4, -8
  74              		.cfi_offset 14, -4
  12:main.c        ****     SW_Tx_UART_Start();
  75              		.loc 1 12 0
  76 0002 FFF7FEFF 		bl	SW_Tx_UART_Start
  77              	.LVL4:
  13:main.c        ****     SW_Tx_UART_PutCRLF();
  78              		.loc 1 13 0
  79 0006 FFF7FEFF 		bl	SW_Tx_UART_PutCRLF
  80              	.LVL5:
  14:main.c        ****     SW_Tx_UART_PutString("Software Transmit UART");
  81              		.loc 1 14 0
  82 000a 1948     		ldr	r0, .L6
  83 000c FFF7FEFF 		bl	SW_Tx_UART_PutString
  84              	.LVL6:
  15:main.c        ****     SW_Tx_UART_PutCRLF();
  85              		.loc 1 15 0
  86 0010 FFF7FEFF 		bl	SW_Tx_UART_PutCRLF
  87              	.LVL7:
  16:main.c        ****     SW_Tx_UART_PutString("Polusmiak Maksym");
  88              		.loc 1 16 0
  89 0014 1748     		ldr	r0, .L6+4
  90 0016 FFF7FEFF 		bl	SW_Tx_UART_PutString
  91              	.LVL8:
  17:main.c        ****     SW_Tx_UART_PutCRLF();
  92              		.loc 1 17 0
  93 001a FFF7FEFF 		bl	SW_Tx_UART_PutCRLF
  94              	.LVL9:
  18:main.c        ****     
  19:main.c        ****     CyGlobalIntEnable;
  95              		.loc 1 19 0
ARM GAS  C:\Users\User\AppData\Local\Temp\cchI9NZ8.s 			page 3


  96              		.syntax divided
  97              	@ 19 "main.c" 1
  98 001e 62B6     		CPSIE   i
  99              	@ 0 "" 2
 100              		.thumb
 101              		.syntax unified
 102              	.L5:
  20:main.c        ****     
  21:main.c        ****     for(;;)
  22:main.c        ****     {
  23:main.c        ****         if (Button_Read() == 0) // кнопка натиснута
 103              		.loc 1 23 0
 104 0020 FFF7FEFF 		bl	Button_Read
 105              	.LVL10:
 106 0024 0028     		cmp	r0, #0
 107 0026 0AD1     		bne	.L3
  24:main.c        ****         {
  25:main.c        ****             SW_Tx_UART_PutString("CYAN/Button pressed");
 108              		.loc 1 25 0
 109 0028 1348     		ldr	r0, .L6+8
 110 002a FFF7FEFF 		bl	SW_Tx_UART_PutString
 111              	.LVL11:
  26:main.c        ****             SW_Tx_UART_PutCRLF();
 112              		.loc 1 26 0
 113 002e FFF7FEFF 		bl	SW_Tx_UART_PutCRLF
 114              	.LVL12:
  27:main.c        ****             // Cyan
  28:main.c        ****             setColor(1, 0, 0);
 115              		.loc 1 28 0
 116 0032 0022     		movs	r2, #0
 117 0034 0021     		movs	r1, #0
 118 0036 0120     		movs	r0, #1
 119 0038 FFF7FEFF 		bl	setColor
 120              	.LVL13:
 121 003c 09E0     		b	.L4
 122              	.L3:
  29:main.c        ****         }
  30:main.c        ****         else // кнопка відпущена
  31:main.c        ****         {
  32:main.c        ****             SW_Tx_UART_PutString("PURPLE/Button released");
 123              		.loc 1 32 0
 124 003e 0F48     		ldr	r0, .L6+12
 125 0040 FFF7FEFF 		bl	SW_Tx_UART_PutString
 126              	.LVL14:
  33:main.c        ****             SW_Tx_UART_PutCRLF();
 127              		.loc 1 33 0
 128 0044 FFF7FEFF 		bl	SW_Tx_UART_PutCRLF
 129              	.LVL15:
  34:main.c        ****             // Purple
  35:main.c        ****             setColor(0, 1, 0);
 130              		.loc 1 35 0
 131 0048 0022     		movs	r2, #0
 132 004a 0121     		movs	r1, #1
 133 004c 0020     		movs	r0, #0
 134 004e FFF7FEFF 		bl	setColor
 135              	.LVL16:
 136              	.L4:
ARM GAS  C:\Users\User\AppData\Local\Temp\cchI9NZ8.s 			page 4


  36:main.c        ****         }
  37:main.c        ****         
  38:main.c        ****         CyDelay(500);
 137              		.loc 1 38 0
 138 0052 FA24     		movs	r4, #250
 139 0054 6400     		lsls	r4, r4, #1
 140 0056 2000     		movs	r0, r4
 141 0058 FFF7FEFF 		bl	CyDelay
 142              	.LVL17:
  39:main.c        ****         setColor(1, 1, 1); // вимкнути (Black)
 143              		.loc 1 39 0
 144 005c 0122     		movs	r2, #1
 145 005e 0121     		movs	r1, #1
 146 0060 0120     		movs	r0, #1
 147 0062 FFF7FEFF 		bl	setColor
 148              	.LVL18:
  40:main.c        ****         CyDelay(500);
 149              		.loc 1 40 0
 150 0066 2000     		movs	r0, r4
 151 0068 FFF7FEFF 		bl	CyDelay
 152              	.LVL19:
  41:main.c        ****     }
 153              		.loc 1 41 0
 154 006c D8E7     		b	.L5
 155              	.L7:
 156 006e C046     		.align	2
 157              	.L6:
 158 0070 00000000 		.word	.LC0
 159 0074 18000000 		.word	.LC2
 160 0078 2C000000 		.word	.LC4
 161 007c 40000000 		.word	.LC6
 162              		.cfi_endproc
 163              	.LFE33:
 164              		.size	main, .-main
 165              		.section	.rodata.str1.4,"aMS",%progbits,1
 166              		.align	2
 167              	.LC0:
 168 0000 536F6674 		.ascii	"Software Transmit UART\000"
 168      77617265 
 168      20547261 
 168      6E736D69 
 168      74205541 
 169 0017 00       		.space	1
 170              	.LC2:
 171 0018 506F6C75 		.ascii	"Polusmiak Maksym\000"
 171      736D6961 
 171      6B204D61 
 171      6B73796D 
 171      00
 172 0029 000000   		.space	3
 173              	.LC4:
 174 002c 4359414E 		.ascii	"CYAN/Button pressed\000"
 174      2F427574 
 174      746F6E20 
 174      70726573 
 174      73656400 
 175              	.LC6:
ARM GAS  C:\Users\User\AppData\Local\Temp\cchI9NZ8.s 			page 5


 176 0040 50555250 		.ascii	"PURPLE/Button released\000"
 176      4C452F42 
 176      7574746F 
 176      6E207265 
 176      6C656173 
 177              		.text
 178              	.Letext0:
 179              		.file 2 "Generated_Source\\PSoC4/LED_R.h"
 180              		.file 3 "Generated_Source\\PSoC4/LED_G.h"
 181              		.file 4 "Generated_Source\\PSoC4/LED_B.h"
 182              		.file 5 "Generated_Source\\PSoC4/SW_Tx_UART.h"
 183              		.file 6 "Generated_Source\\PSoC4/Button.h"
 184              		.file 7 "Generated_Source\\PSoC4/CyLib.h"
 185              		.file 8 "Generated_Source\\PSoC4/cytypes.h"