ARM GAS  C:\Users\User\AppData\Local\Temp\ccwxAVLH.s 			page 1


   1              		.syntax unified
   2              		.cpu cortex-m0
   3              		.fpu softvfp
   4              		.eabi_attribute 20, 1
   5              		.eabi_attribute 21, 1
   6              		.eabi_attribute 23, 3
   7              		.eabi_attribute 24, 1
   8              		.eabi_attribute 25, 1
   9              		.eabi_attribute 26, 1
  10              		.eabi_attribute 30, 1
  11              		.eabi_attribute 34, 0
  12              		.eabi_attribute 18, 4
  13              		.thumb
  14              		.syntax unified
  15              		.file	"main.c"
  16              		.text
  17              	.Ltext0:
  18              		.cfi_sections	.debug_frame
  19              		.section	.text.initMatrix,"ax",%progbits
  20              		.align	2
  21              		.code	16
  22              		.thumb_func
  23              		.type	initMatrix, %function
  24              	initMatrix:
  25              	.LFB35:
  26              		.file 1 "main.c"
   1:main.c        **** #include "project.h"
   2:main.c        **** 
   3:main.c        **** // ą¤čĆąŠčéąŠčéąĖą┐ąĖ čäčāąĮą║čåč¢ą╣
   4:main.c        **** static void sendDataSPI(uint8_t data);
   5:main.c        **** static void displayDigit(uint8_t position, uint8_t digit);
   6:main.c        **** static void initMatrix(void);
   7:main.c        **** static void readMatrix(void);
   8:main.c        **** static void shiftRightLast4(void);
   9:main.c        **** static void checkPassword(void);
  10:main.c        **** static void updateTimer(void);
  11:main.c        **** static void startTimer(void);
  12:main.c        **** static void startPasswordInput(void);
  13:main.c        **** 
  14:main.c        **** // ąÜąŠą┤ąĖ ą┤ą╗čÅ 7-čüąĄą│ą╝ąĄąĮčéąĮąŠą│ąŠ č¢ąĮą┤ąĖą║ą░čéąŠčĆą░ (Common Anode)
  15:main.c        **** // 0-9, A-F, ą▓čüč¢ čāą▓č¢ą╝ą║ąĮąĄąĮč¢ (8.), ą▓čüč¢ ą▓ąĖą╝ą║ąĮąĄąĮč¢ ( )
  16:main.c        **** static uint8_t SEGMENT_CODES[] = {
  17:main.c        ****     0xC0, // 0
  18:main.c        ****     0xF9, // 1
  19:main.c        ****     0xA4, // 2
  20:main.c        ****     0xB0, // 3
  21:main.c        ****     0x99, // 4
  22:main.c        ****     0x92, // 5
  23:main.c        ****     0x82, // 6
  24:main.c        ****     0xF8, // 7
  25:main.c        ****     0x80, // 8
  26:main.c        ****     0x90, // 9
  27:main.c        ****     0x88, // A
  28:main.c        ****     0x83, // B
  29:main.c        ****     0xC6, // C
  30:main.c        ****     0xA1, // D
  31:main.c        ****     0x86, // E
ARM GAS  C:\Users\User\AppData\Local\Temp\ccwxAVLH.s 			page 2


  32:main.c        ****     0x8E, // F
  33:main.c        ****     0x00, // ąÆčüč¢ čāą▓č¢ą╝ą║ąĮąĄąĮč¢ (8.)
  34:main.c        ****     0xFF  // ąÆčüč¢ ą▓ąĖą╝ą║ąĮąĄąĮč¢ ( )
  35:main.c        **** };
  36:main.c        **** 
  37:main.c        **** // ąöą░ąĮč¢ ą┤ą╗čÅ ą▓č¢ą┤ąŠą▒čĆą░ąČąĄąĮąĮčÅ ąĮą░ 8 č¢ąĮą┤ąĖą║ą░čéąŠčĆą░čģ
  38:main.c        **** static uint8_t display_data[8] = {0, 0, 0, 0, 5, 4, 0, 0}; // ą¦ąĖčüą╗ąŠ 54
  39:main.c        **** 
  40:main.c        **** // ąŚą╝č¢ąĮąĮč¢ ą┤ą╗čÅ ą┤ąĖąĮą░ą╝č¢čćąĮąŠčŚ č¢ąĮą┤ąĖą║ą░čåč¢čŚ
  41:main.c        **** static uint8_t current_digit = 0;
  42:main.c        **** 
  43:main.c        **** // ąŚą╝č¢ąĮąĮč¢ ą┤ą╗čÅ ą┐ą░čĆąŠą╗čÄ
  44:main.c        **** static uint8_t password[4] = {1, 2, 3, 4}; // ą¤ą░čĆąŠą╗čī: 1234
  45:main.c        **** static uint8_t input_buffer[4] = {0};
  46:main.c        **** static uint8_t input_index = 0;
  47:main.c        **** static uint8_t password_mode = 0;
  48:main.c        **** static uint8_t password_verified = 0;
  49:main.c        **** 
  50:main.c        **** // ąŚą╝č¢ąĮąĮč¢ ą┤ą╗čÅ čéą░ą╣ą╝ąĄčĆą░
  51:main.c        **** static uint8_t timer_minutes = 5;
  52:main.c        **** static uint8_t timer_seconds = 0;
  53:main.c        **** static uint32_t timer_counter = 0;
  54:main.c        **** static uint8_t timer_running = 0;
  55:main.c        **** 
  56:main.c        **** // ąŚą╝č¢ąĮąĮč¢ ą┤ą╗čÅ ą░ąĮč¢ą╝ą░čåč¢čŚ
  57:main.c        **** static uint32_t shift_counter = 0;
  58:main.c        **** static uint32_t blink_counter = 0;
  59:main.c        **** static uint8_t blink_state = 0;
  60:main.c        **** 
  61:main.c        **** // ą£ą░čéčĆąĖčåčÅ ą║ą╗ą░ą▓č¢ą░čéčāčĆąĖ
  62:main.c        **** static uint8_t keys[4][3] = {
  63:main.c        ****     {1, 2, 3},
  64:main.c        ****     {4, 5, 6}, 
  65:main.c        ****     {7, 8, 9},
  66:main.c        ****     {10, 0, 11} // * = 10, 0, # = 11
  67:main.c        **** };
  68:main.c        **** 
  69:main.c        **** // ążčāąĮą║čåč¢čŚ ą┤ą╗čÅ čĆąŠą▒ąŠčéąĖ ąĘ čüčéąŠą▓ą┐čåčÅą╝ąĖ
  70:main.c        **** static void (*COLUMN_SetDriveMode[3])(uint8_t mode) = {
  71:main.c        ****     COLUMN_0_SetDriveMode,
  72:main.c        ****     COLUMN_1_SetDriveMode, 
  73:main.c        ****     COLUMN_2_SetDriveMode
  74:main.c        **** };
  75:main.c        **** 
  76:main.c        **** static void (*COLUMN_Write[3])(uint8_t value) = {
  77:main.c        ****     COLUMN_0_Write,
  78:main.c        ****     COLUMN_1_Write,
  79:main.c        ****     COLUMN_2_Write
  80:main.c        **** };
  81:main.c        **** 
  82:main.c        **** // ążčāąĮą║čåč¢čŚ ą┤ą╗čÅ čćąĖčéą░ąĮąĮčÅ čĆčÅą┤ą║č¢ą▓
  83:main.c        **** static uint8_t (*ROW_Read[4])() = {
  84:main.c        ****     ROW_0_Read,
  85:main.c        ****     ROW_1_Read,
  86:main.c        ****     ROW_2_Read, 
  87:main.c        ****     ROW_3_Read
  88:main.c        **** };
ARM GAS  C:\Users\User\AppData\Local\Temp\ccwxAVLH.s 			page 3


  89:main.c        **** 
  90:main.c        **** // ą×ą▒čĆąŠą▒ąĮąĖą║ ą┐ąĄčĆąĄčĆąĖą▓ą░ąĮąĮčÅ čéą░ą╣ą╝ąĄčĆą░ ą┤ą╗čÅ ą┤ąĖąĮą░ą╝č¢čćąĮąŠčŚ č¢ąĮą┤ąĖą║ą░č
  91:main.c        **** CY_ISR(Timer_Display_Handler)
  92:main.c        **** {
  93:main.c        ****     if (password_verified == 0) {
  94:main.c        ****         // ąŚą▓ąĖčćą░ą╣ąĮąĖą╣ čĆąĄąČąĖą╝
  95:main.c        ****         displayDigit(current_digit, display_data[current_digit]);
  96:main.c        ****     }
  97:main.c        ****     else if (password_verified == 1) {
  98:main.c        ****         // ąÆč¢čĆąĮąĖą╣ ą┐ą░čĆąŠą╗čī - ą╝ąĖą│ą░ąĮąĮčÅ ą▓čüč¢čģ čüąĄą│ą╝ąĄąĮčéč¢ą▓
  99:main.c        ****         displayDigit(current_digit, blink_state ? 16 : 17);
 100:main.c        ****     }
 101:main.c        ****     else if (password_verified == 2) {
 102:main.c        ****         // ąØąĄą▓č¢čĆąĮąĖą╣ ą┐ą░čĆąŠą╗čī - čłą░čģąŠą▓ąĄ ą╝ąĖą│ą░ąĮąĮčÅ
 103:main.c        ****         if ((current_digit % 2 == 0 && blink_state) || (current_digit % 2 == 1 && !blink_state)) {
 104:main.c        ****             displayDigit(current_digit, 16);
 105:main.c        ****         } else {
 106:main.c        ****             displayDigit(current_digit, 17);
 107:main.c        ****         }
 108:main.c        ****     }
 109:main.c        ****     
 110:main.c        ****     current_digit++;
 111:main.c        ****     if (current_digit >= 8) current_digit = 0;
 112:main.c        **** }
 113:main.c        **** 
 114:main.c        **** // ążčāąĮą║čåč¢čÅ ą┐ąĄčĆąĄą┤ą░čćč¢ ą┤ą░ąĮąĖčģ ą┐ąŠ SPI
 115:main.c        **** static void sendDataSPI(uint8_t data)
 116:main.c        **** {
 117:main.c        ****     for (uint8_t i = 0; i < 8; i++) {
 118:main.c        ****         if (data & (0x80 >> i)) {
 119:main.c        ****             Pin_DO_Write(1);
 120:main.c        ****         } else {
 121:main.c        ****             Pin_DO_Write(0);
 122:main.c        ****         }
 123:main.c        ****         Pin_CLK_Write(1);
 124:main.c        ****         CyDelayUs(1);
 125:main.c        ****         Pin_CLK_Write(0);
 126:main.c        ****         CyDelayUs(1);
 127:main.c        ****     }
 128:main.c        **** }
 129:main.c        **** 
 130:main.c        **** // ążčāąĮą║čåč¢čÅ ą▓č¢ą┤ąŠą▒čĆą░ąČąĄąĮąĮčÅ ąŠą┤ąĮąŠą│ąŠ čĆąŠąĘčĆčÅą┤čā
 131:main.c        **** static void displayDigit(uint8_t position, uint8_t digit)
 132:main.c        **** {
 133:main.c        ****     // ąÆąĖą▒č¢čĆ ą┐ąŠąĘąĖčåč¢čŚ (ą░ąĮąŠą┤)
 134:main.c        ****     uint8_t position_mask = 0xFF & ~(1 << position);
 135:main.c        ****     sendDataSPI(position_mask);
 136:main.c        ****     
 137:main.c        ****     // ąÆąĖą▒č¢čĆ čüąĄą│ą╝ąĄąĮčéč¢ą▓ (ą║ą░čéąŠą┤)
 138:main.c        ****     if (digit < 18) {
 139:main.c        ****         sendDataSPI(SEGMENT_CODES[digit]);
 140:main.c        ****     } else {
 141:main.c        ****         sendDataSPI(0xFF); // ąÆąĖą╝ą║ąĮąĄąĮąŠ
 142:main.c        ****     }
 143:main.c        ****     
 144:main.c        ****     // ąŚą░čäč¢ą║čüčāą▓ą░čéąĖ ą┤ą░ąĮč¢
 145:main.c        ****     Pin_Latch_Write(1);
ARM GAS  C:\Users\User\AppData\Local\Temp\ccwxAVLH.s 			page 4


 146:main.c        ****     CyDelayUs(1);
 147:main.c        ****     Pin_Latch_Write(0);
 148:main.c        ****     CyDelayUs(1);
 149:main.c        **** }
 150:main.c        **** 
 151:main.c        **** // ąåąĮč¢čåč¢ą░ą╗č¢ąĘą░čåč¢čÅ ą╝ą░čéčĆąĖčåč¢ ą║ą╗ą░ą▓č¢čł
 152:main.c        **** static void initMatrix(void)
 153:main.c        **** {
  27              		.loc 1 153 0
  28              		.cfi_startproc
  29              		@ args = 0, pretend = 0, frame = 0
  30              		@ frame_needed = 0, uses_anonymous_args = 0
  31 0000 10B5     		push	{r4, lr}
  32              		.cfi_def_cfa_offset 8
  33              		.cfi_offset 4, -8
  34              		.cfi_offset 14, -4
  35              	.LVL0:
  36              	.LBB2:
 154:main.c        ****     for (int i = 0; i < 3; i++) {
  37              		.loc 1 154 0
  38 0002 0024     		movs	r4, #0
  39 0004 05E0     		b	.L2
  40              	.LVL1:
  41              	.L3:
 155:main.c        ****         COLUMN_SetDriveMode[i](COLUMN_0_DM_DIG_HIZ);
  42              		.loc 1 155 0 discriminator 3
  43 0006 A200     		lsls	r2, r4, #2
  44 0008 034B     		ldr	r3, .L4
  45 000a D358     		ldr	r3, [r2, r3]
  46 000c 0120     		movs	r0, #1
  47 000e 9847     		blx	r3
  48              	.LVL2:
 154:main.c        ****     for (int i = 0; i < 3; i++) {
  49              		.loc 1 154 0 discriminator 3
  50 0010 0134     		adds	r4, r4, #1
  51              	.LVL3:
  52              	.L2:
 154:main.c        ****     for (int i = 0; i < 3; i++) {
  53              		.loc 1 154 0 is_stmt 0 discriminator 1
  54 0012 022C     		cmp	r4, #2
  55 0014 F7DD     		ble	.L3
  56              	.LBE2:
 156:main.c        ****     }
 157:main.c        **** }
  57              		.loc 1 157 0 is_stmt 1
  58              		@ sp needed
  59              	.LVL4:
  60 0016 10BD     		pop	{r4, pc}
  61              	.L5:
  62              		.align	2
  63              	.L4:
  64 0018 00000000 		.word	.LANCHOR0
  65              		.cfi_endproc
  66              	.LFE35:
  67              		.size	initMatrix, .-initMatrix
  68              		.section	.text.shiftRightLast4,"ax",%progbits
  69              		.align	2
ARM GAS  C:\Users\User\AppData\Local\Temp\ccwxAVLH.s 			page 5


  70              		.code	16
  71              		.thumb_func
  72              		.type	shiftRightLast4, %function
  73              	shiftRightLast4:
  74              	.LFB37:
 158:main.c        **** 
 159:main.c        **** // ą¦ąĖčéą░ąĮąĮčÅ čüčéą░ąĮčā ą╝ą░čéčĆąĖčåč¢ ą║ą╗ą░ą▓č¢čł
 160:main.c        **** static void readMatrix(void)
 161:main.c        **** {
 162:main.c        ****     for (int col = 0; col < 3; col++) {
 163:main.c        ****         // ąÉą║čéąĖą▓čāą▓ą░čéąĖ čüčéąŠą▓ą┐ąĄčåčī
 164:main.c        ****         COLUMN_SetDriveMode[col](COLUMN_0_DM_STRONG);
 165:main.c        ****         COLUMN_Write[col](0);
 166:main.c        ****         CyDelayUs(10);
 167:main.c        ****         
 168:main.c        ****         // ą¤čĆąŠčćąĖčéą░čéąĖ čĆčÅą┤ą║ąĖ
 169:main.c        ****         for (int row = 0; row < 4; row++) {
 170:main.c        ****             keys[row][col] = ROW_Read[row]();
 171:main.c        ****         }
 172:main.c        ****         
 173:main.c        ****         // ąöąĄą░ą║čéąĖą▓čāą▓ą░čéąĖ čüčéąŠą▓ą┐ąĄčåčī
 174:main.c        ****         COLUMN_SetDriveMode[col](COLUMN_0_DM_DIG_HIZ);
 175:main.c        ****     }
 176:main.c        **** }
 177:main.c        **** 
 178:main.c        **** // ą”ąĖą║ą╗č¢čćąĮąĖą╣ ąĘčüčāą▓ ąŠčüčéą░ąĮąĮč¢čģ 4 čåąĖčäčĆ ą▓ą┐čĆą░ą▓ąŠ (ą▓ą░čĆč¢ą░ąĮčé 5)
 179:main.c        **** static void shiftRightLast4(void)
 180:main.c        **** {
  75              		.loc 1 180 0
  76              		.cfi_startproc
  77              		@ args = 0, pretend = 0, frame = 0
  78              		@ frame_needed = 0, uses_anonymous_args = 0
  79 0000 10B5     		push	{r4, lr}
  80              		.cfi_def_cfa_offset 8
  81              		.cfi_offset 4, -8
  82              		.cfi_offset 14, -4
 181:main.c        ****     if (password_mode || password_verified || timer_running) return;
  83              		.loc 1 181 0
  84 0002 0D4B     		ldr	r3, .L10
  85 0004 1B78     		ldrb	r3, [r3]
  86 0006 002B     		cmp	r3, #0
  87 0008 14D1     		bne	.L6
  88              		.loc 1 181 0 is_stmt 0 discriminator 1
  89 000a 0B4B     		ldr	r3, .L10
  90 000c 5B78     		ldrb	r3, [r3, #1]
  91 000e 002B     		cmp	r3, #0
  92 0010 10D1     		bne	.L6
  93              		.loc 1 181 0 discriminator 2
  94 0012 094B     		ldr	r3, .L10
  95 0014 9B78     		ldrb	r3, [r3, #2]
  96 0016 002B     		cmp	r3, #0
  97 0018 0CD1     		bne	.L6
 182:main.c        ****     
 183:main.c        ****     uint8_t temp = display_data[7];
  98              		.loc 1 183 0 is_stmt 1
  99 001a 084B     		ldr	r3, .L10+4
 100 001c DC79     		ldrb	r4, [r3, #7]
ARM GAS  C:\Users\User\AppData\Local\Temp\ccwxAVLH.s 			page 6


 101              	.LVL5:
 102              	.LBB3:
 184:main.c        ****     for (int i = 7; i > 4; i--) {
 103              		.loc 1 184 0
 104 001e 0723     		movs	r3, #7
 105 0020 04E0     		b	.L8
 106              	.LVL6:
 107              	.L9:
 185:main.c        ****         display_data[i] = display_data[i-1];
 108              		.loc 1 185 0 discriminator 3
 109 0022 5A1E     		subs	r2, r3, #1
 110 0024 0549     		ldr	r1, .L10+4
 111 0026 885C     		ldrb	r0, [r1, r2]
 112 0028 C854     		strb	r0, [r1, r3]
 113              	.LVL7:
 184:main.c        ****     for (int i = 7; i > 4; i--) {
 114              		.loc 1 184 0 discriminator 3
 115 002a 1300     		movs	r3, r2
 116              	.LVL8:
 117              	.L8:
 184:main.c        ****     for (int i = 7; i > 4; i--) {
 118              		.loc 1 184 0 is_stmt 0 discriminator 1
 119 002c 042B     		cmp	r3, #4
 120 002e F8DC     		bgt	.L9
 121              	.LBE3:
 186:main.c        ****     }
 187:main.c        ****     display_data[4] = temp;
 122              		.loc 1 187 0 is_stmt 1
 123 0030 024B     		ldr	r3, .L10+4
 124              	.LVL9:
 125 0032 1C71     		strb	r4, [r3, #4]
 126              	.LVL10:
 127              	.L6:
 188:main.c        **** }
 128              		.loc 1 188 0
 129              		@ sp needed
 130 0034 10BD     		pop	{r4, pc}
 131              	.L11:
 132 0036 C046     		.align	2
 133              	.L10:
 134 0038 00000000 		.word	.LANCHOR1
 135 003c 00000000 		.word	.LANCHOR2
 136              		.cfi_endproc
 137              	.LFE37:
 138              		.size	shiftRightLast4, .-shiftRightLast4
 139              		.section	.text.checkPassword,"ax",%progbits
 140              		.align	2
 141              		.code	16
 142              		.thumb_func
 143              		.type	checkPassword, %function
 144              	checkPassword:
 145              	.LFB38:
 189:main.c        **** 
 190:main.c        **** // ą¤ąĄčĆąĄą▓č¢čĆą║ą░ ą┐ą░čĆąŠą╗čÄ
 191:main.c        **** static void checkPassword(void)
 192:main.c        **** {
 146              		.loc 1 192 0
ARM GAS  C:\Users\User\AppData\Local\Temp\ccwxAVLH.s 			page 7


 147              		.cfi_startproc
 148              		@ args = 0, pretend = 0, frame = 0
 149              		@ frame_needed = 0, uses_anonymous_args = 0
 150              		@ link register save eliminated.
 193:main.c        ****     password_verified = 1; // ą¤čĆąĖą┐čāčüą║ą░čöą╝ąŠ ą▓č¢čĆąĮąĖą╣ ą┐ą░čĆąŠą╗čī
 151              		.loc 1 193 0
 152 0000 0122     		movs	r2, #1
 153 0002 104B     		ldr	r3, .L19
 154 0004 5A70     		strb	r2, [r3, #1]
 155              	.LVL11:
 156              	.LBB4:
 194:main.c        ****     
 195:main.c        ****     for (int i = 0; i < 4; i++) {
 157              		.loc 1 195 0
 158 0006 0023     		movs	r3, #0
 159 0008 0DE0     		b	.L13
 160              	.LVL12:
 161              	.L16:
 196:main.c        ****         if (input_buffer[i] != password[i]) {
 162              		.loc 1 196 0
 163 000a 0E4A     		ldr	r2, .L19
 164 000c D218     		adds	r2, r2, r3
 165 000e 1179     		ldrb	r1, [r2, #4]
 166 0010 0D4A     		ldr	r2, .L19+4
 167 0012 D218     		adds	r2, r2, r3
 168 0014 127B     		ldrb	r2, [r2, #12]
 169 0016 9142     		cmp	r1, r2
 170 0018 04D0     		beq	.L14
 197:main.c        ****             password_verified = 2; // ąØąĄą▓č¢čĆąĮąĖą╣ ą┐ą░čĆąŠą╗čī
 171              		.loc 1 197 0
 172 001a 0222     		movs	r2, #2
 173 001c 094B     		ldr	r3, .L19
 174              	.LVL13:
 175 001e 5A70     		strb	r2, [r3, #1]
 176              	.L17:
 195:main.c        ****         if (input_buffer[i] != password[i]) {
 177              		.loc 1 195 0 discriminator 1
 178 0020 0023     		movs	r3, #0
 179 0022 08E0     		b	.L15
 180              	.LVL14:
 181              	.L14:
 195:main.c        ****         if (input_buffer[i] != password[i]) {
 182              		.loc 1 195 0 is_stmt 0 discriminator 2
 183 0024 0133     		adds	r3, r3, #1
 184              	.LVL15:
 185              	.L13:
 195:main.c        ****         if (input_buffer[i] != password[i]) {
 186              		.loc 1 195 0 discriminator 1
 187 0026 032B     		cmp	r3, #3
 188 0028 EFDD     		ble	.L16
 189 002a F9E7     		b	.L17
 190              	.LVL16:
 191              	.L18:
 192              	.LBE4:
 193              	.LBB5:
 198:main.c        ****             break;
 199:main.c        ****         }
ARM GAS  C:\Users\User\AppData\Local\Temp\ccwxAVLH.s 			page 8


 200:main.c        ****     }
 201:main.c        ****     
 202:main.c        ****     // ą×čćąĖčüčéąĖčéąĖ ą▒čāčäąĄčĆ
 203:main.c        ****     for (int i = 0; i < 4; i++) {
 204:main.c        ****         input_buffer[i] = 0;
 194              		.loc 1 204 0 is_stmt 1 discriminator 3
 195 002c 054A     		ldr	r2, .L19
 196 002e D218     		adds	r2, r2, r3
 197 0030 0021     		movs	r1, #0
 198 0032 1171     		strb	r1, [r2, #4]
 203:main.c        ****         input_buffer[i] = 0;
 199              		.loc 1 203 0 discriminator 3
 200 0034 0133     		adds	r3, r3, #1
 201              	.LVL17:
 202              	.L15:
 203:main.c        ****         input_buffer[i] = 0;
 203              		.loc 1 203 0 is_stmt 0 discriminator 1
 204 0036 032B     		cmp	r3, #3
 205 0038 F8DD     		ble	.L18
 206              	.LBE5:
 205:main.c        ****     }
 206:main.c        ****     input_index = 0;
 207              		.loc 1 206 0 is_stmt 1
 208 003a 024B     		ldr	r3, .L19
 209              	.LVL18:
 210 003c 0022     		movs	r2, #0
 211 003e 1A72     		strb	r2, [r3, #8]
 207:main.c        ****     password_mode = 0;
 212              		.loc 1 207 0
 213 0040 1A70     		strb	r2, [r3]
 208:main.c        **** }
 214              		.loc 1 208 0
 215              		@ sp needed
 216 0042 7047     		bx	lr
 217              	.L20:
 218              		.align	2
 219              	.L19:
 220 0044 00000000 		.word	.LANCHOR1
 221 0048 00000000 		.word	.LANCHOR0
 222              		.cfi_endproc
 223              	.LFE38:
 224              		.size	checkPassword, .-checkPassword
 225              		.global	__aeabi_uidiv
 226              		.global	__aeabi_uidivmod
 227              		.section	.text.updateTimer,"ax",%progbits
 228              		.align	2
 229              		.code	16
 230              		.thumb_func
 231              		.type	updateTimer, %function
 232              	updateTimer:
 233              	.LFB39:
 209:main.c        **** 
 210:main.c        **** // ą×ąĮąŠą▓ą╗ąĄąĮąĮčÅ čéą░ą╣ą╝ąĄčĆą░
 211:main.c        **** static void updateTimer(void)
 212:main.c        **** {
 234              		.loc 1 212 0
 235              		.cfi_startproc
ARM GAS  C:\Users\User\AppData\Local\Temp\ccwxAVLH.s 			page 9


 236              		@ args = 0, pretend = 0, frame = 0
 237              		@ frame_needed = 0, uses_anonymous_args = 0
 238 0000 70B5     		push	{r4, r5, r6, lr}
 239              		.cfi_def_cfa_offset 16
 240              		.cfi_offset 4, -16
 241              		.cfi_offset 5, -12
 242              		.cfi_offset 6, -8
 243              		.cfi_offset 14, -4
 213:main.c        ****     if (!timer_running) return;
 244              		.loc 1 213 0
 245 0002 194B     		ldr	r3, .L26
 246 0004 9B78     		ldrb	r3, [r3, #2]
 247 0006 002B     		cmp	r3, #0
 248 0008 2DD0     		beq	.L21
 214:main.c        ****     
 215:main.c        ****     if (timer_seconds == 0) {
 249              		.loc 1 215 0
 250 000a 174B     		ldr	r3, .L26
 251 000c 5B7A     		ldrb	r3, [r3, #9]
 252 000e 002B     		cmp	r3, #0
 253 0010 0ED1     		bne	.L23
 216:main.c        ****         if (timer_minutes == 0) {
 254              		.loc 1 216 0
 255 0012 164B     		ldr	r3, .L26+4
 256 0014 1B7A     		ldrb	r3, [r3, #8]
 257 0016 002B     		cmp	r3, #0
 258 0018 03D1     		bne	.L24
 217:main.c        ****             timer_running = 0;
 259              		.loc 1 217 0
 260 001a 0022     		movs	r2, #0
 261 001c 124B     		ldr	r3, .L26
 262 001e 9A70     		strb	r2, [r3, #2]
 218:main.c        ****             return;
 263              		.loc 1 218 0
 264 0020 21E0     		b	.L21
 265              	.L24:
 219:main.c        ****         }
 220:main.c        ****         timer_minutes--;
 266              		.loc 1 220 0
 267 0022 013B     		subs	r3, r3, #1
 268 0024 114A     		ldr	r2, .L26+4
 269 0026 1372     		strb	r3, [r2, #8]
 221:main.c        ****         timer_seconds = 59;
 270              		.loc 1 221 0
 271 0028 3B22     		movs	r2, #59
 272 002a 0F4B     		ldr	r3, .L26
 273 002c 5A72     		strb	r2, [r3, #9]
 274 002e 02E0     		b	.L25
 275              	.L23:
 222:main.c        ****     } else {
 223:main.c        ****         timer_seconds--;
 276              		.loc 1 223 0
 277 0030 013B     		subs	r3, r3, #1
 278 0032 0D4A     		ldr	r2, .L26
 279 0034 5372     		strb	r3, [r2, #9]
 280              	.L25:
 224:main.c        ****     }
ARM GAS  C:\Users\User\AppData\Local\Temp\ccwxAVLH.s 			page 10


 225:main.c        ****     
 226:main.c        ****     // ą×ąĮąŠą▓ąĖčéąĖ ą▓č¢ą┤ąŠą▒čĆą░ąČąĄąĮąĮčÅ
 227:main.c        ****     display_data[0] = timer_minutes / 10;
 281              		.loc 1 227 0
 282 0036 0D4C     		ldr	r4, .L26+4
 283 0038 257A     		ldrb	r5, [r4, #8]
 284 003a 0A21     		movs	r1, #10
 285 003c 2800     		movs	r0, r5
 286 003e FFF7FEFF 		bl	__aeabi_uidiv
 287              	.LVL19:
 288 0042 2070     		strb	r0, [r4]
 228:main.c        ****     display_data[1] = timer_minutes % 10;
 289              		.loc 1 228 0
 290 0044 0A21     		movs	r1, #10
 291 0046 2800     		movs	r0, r5
 292 0048 FFF7FEFF 		bl	__aeabi_uidivmod
 293              	.LVL20:
 294 004c 6170     		strb	r1, [r4, #1]
 229:main.c        ****     display_data[2] = timer_seconds / 10;
 295              		.loc 1 229 0
 296 004e 064B     		ldr	r3, .L26
 297 0050 5D7A     		ldrb	r5, [r3, #9]
 298 0052 0A21     		movs	r1, #10
 299 0054 2800     		movs	r0, r5
 300 0056 FFF7FEFF 		bl	__aeabi_uidiv
 301              	.LVL21:
 302 005a A070     		strb	r0, [r4, #2]
 230:main.c        ****     display_data[3] = timer_seconds % 10;
 303              		.loc 1 230 0
 304 005c 0A21     		movs	r1, #10
 305 005e 2800     		movs	r0, r5
 306 0060 FFF7FEFF 		bl	__aeabi_uidivmod
 307              	.LVL22:
 308 0064 E170     		strb	r1, [r4, #3]
 309              	.L21:
 231:main.c        **** }
 310              		.loc 1 231 0
 311              		@ sp needed
 312 0066 70BD     		pop	{r4, r5, r6, pc}
 313              	.L27:
 314              		.align	2
 315              	.L26:
 316 0068 00000000 		.word	.LANCHOR1
 317 006c 00000000 		.word	.LANCHOR2
 318              		.cfi_endproc
 319              	.LFE39:
 320              		.size	updateTimer, .-updateTimer
 321              		.section	.text.startTimer,"ax",%progbits
 322              		.align	2
 323              		.code	16
 324              		.thumb_func
 325              		.type	startTimer, %function
 326              	startTimer:
 327              	.LFB40:
 232:main.c        **** 
 233:main.c        **** // ąŚą░ą┐čāčüą║ čéą░ą╣ą╝ąĄčĆą░
 234:main.c        **** static void startTimer(void)
ARM GAS  C:\Users\User\AppData\Local\Temp\ccwxAVLH.s 			page 11


 235:main.c        **** {
 328              		.loc 1 235 0
 329              		.cfi_startproc
 330              		@ args = 0, pretend = 0, frame = 0
 331              		@ frame_needed = 0, uses_anonymous_args = 0
 332 0000 10B5     		push	{r4, lr}
 333              		.cfi_def_cfa_offset 8
 334              		.cfi_offset 4, -8
 335              		.cfi_offset 14, -4
 236:main.c        ****     timer_running = 1;
 336              		.loc 1 236 0
 337 0002 054B     		ldr	r3, .L29
 338 0004 0122     		movs	r2, #1
 339 0006 9A70     		strb	r2, [r3, #2]
 237:main.c        ****     timer_minutes = 5;
 340              		.loc 1 237 0
 341 0008 0521     		movs	r1, #5
 342 000a 044A     		ldr	r2, .L29+4
 343 000c 1172     		strb	r1, [r2, #8]
 238:main.c        ****     timer_seconds = 0;
 344              		.loc 1 238 0
 345 000e 0022     		movs	r2, #0
 346 0010 5A72     		strb	r2, [r3, #9]
 239:main.c        ****     updateTimer();
 347              		.loc 1 239 0
 348 0012 FFF7FEFF 		bl	updateTimer
 349              	.LVL23:
 240:main.c        **** }
 350              		.loc 1 240 0
 351              		@ sp needed
 352 0016 10BD     		pop	{r4, pc}
 353              	.L30:
 354              		.align	2
 355              	.L29:
 356 0018 00000000 		.word	.LANCHOR1
 357 001c 00000000 		.word	.LANCHOR2
 358              		.cfi_endproc
 359              	.LFE40:
 360              		.size	startTimer, .-startTimer
 361              		.section	.text.startPasswordInput,"ax",%progbits
 362              		.align	2
 363              		.code	16
 364              		.thumb_func
 365              		.type	startPasswordInput, %function
 366              	startPasswordInput:
 367              	.LFB41:
 241:main.c        **** 
 242:main.c        **** // ą¤ąŠčćą░čéąŠą║ ą▓ą▓ąŠą┤čā ą┐ą░čĆąŠą╗čÄ
 243:main.c        **** static void startPasswordInput(void)
 244:main.c        **** {
 368              		.loc 1 244 0
 369              		.cfi_startproc
 370              		@ args = 0, pretend = 0, frame = 0
 371              		@ frame_needed = 0, uses_anonymous_args = 0
 372              		@ link register save eliminated.
 245:main.c        ****     password_mode = 1;
 373              		.loc 1 245 0
ARM GAS  C:\Users\User\AppData\Local\Temp\ccwxAVLH.s 			page 12


 374 0000 104B     		ldr	r3, .L38
 375 0002 0122     		movs	r2, #1
 376 0004 1A70     		strb	r2, [r3]
 246:main.c        ****     password_verified = 0;
 377              		.loc 1 246 0
 378 0006 0022     		movs	r2, #0
 379 0008 5A70     		strb	r2, [r3, #1]
 380              	.LVL24:
 381              	.LBB6:
 247:main.c        ****     
 248:main.c        ****     // ą×čćąĖčüčéąĖčéąĖ ą▒čāčäąĄčĆ
 249:main.c        ****     for (int i = 0; i < 4; i++) {
 382              		.loc 1 249 0
 383 000a 0023     		movs	r3, #0
 384 000c 04E0     		b	.L32
 385              	.LVL25:
 386              	.L33:
 250:main.c        ****         input_buffer[i] = 0;
 387              		.loc 1 250 0 discriminator 3
 388 000e 0D4A     		ldr	r2, .L38
 389 0010 D218     		adds	r2, r2, r3
 390 0012 0021     		movs	r1, #0
 391 0014 1171     		strb	r1, [r2, #4]
 249:main.c        ****         input_buffer[i] = 0;
 392              		.loc 1 249 0 discriminator 3
 393 0016 0133     		adds	r3, r3, #1
 394              	.LVL26:
 395              	.L32:
 249:main.c        ****         input_buffer[i] = 0;
 396              		.loc 1 249 0 is_stmt 0 discriminator 1
 397 0018 032B     		cmp	r3, #3
 398 001a F8DD     		ble	.L33
 399              	.LBE6:
 251:main.c        ****     }
 252:main.c        ****     input_index = 0;
 400              		.loc 1 252 0 is_stmt 1
 401 001c 0022     		movs	r2, #0
 402 001e 094B     		ldr	r3, .L38
 403              	.LVL27:
 404 0020 1A72     		strb	r2, [r3, #8]
 405              	.LVL28:
 406              	.LBB7:
 253:main.c        ****     
 254:main.c        ****     // ąÆč¢ą┤ąŠą▒čĆą░ąĘąĖčéąĖ č¢ąĮą┤ąĖą║ą░čåč¢čÄ ą▓ą▓ąŠą┤čā ą┐ą░čĆąŠą╗čÄ
 255:main.c        ****     for (int i = 0; i < 4; i++) {
 407              		.loc 1 255 0
 408 0022 0023     		movs	r3, #0
 409 0024 03E0     		b	.L34
 410              	.LVL29:
 411              	.L35:
 256:main.c        ****         display_data[i] = 15; // 'F'
 412              		.loc 1 256 0 discriminator 3
 413 0026 0F21     		movs	r1, #15
 414 0028 074A     		ldr	r2, .L38+4
 415 002a D154     		strb	r1, [r2, r3]
 255:main.c        ****         display_data[i] = 15; // 'F'
 416              		.loc 1 255 0 discriminator 3
ARM GAS  C:\Users\User\AppData\Local\Temp\ccwxAVLH.s 			page 13


 417 002c 0133     		adds	r3, r3, #1
 418              	.LVL30:
 419              	.L34:
 255:main.c        ****         display_data[i] = 15; // 'F'
 420              		.loc 1 255 0 is_stmt 0 discriminator 1
 421 002e 032B     		cmp	r3, #3
 422 0030 F9DD     		ble	.L35
 423 0032 0423     		movs	r3, #4
 424              	.LVL31:
 425 0034 03E0     		b	.L36
 426              	.LVL32:
 427              	.L37:
 428              	.LBE7:
 429              	.LBB8:
 257:main.c        ****     }
 258:main.c        ****     for (int i = 4; i < 8; i++) {
 259:main.c        ****         display_data[i] = 17; // ą¤ąŠčĆąŠąČąĮčīąŠ
 430              		.loc 1 259 0 is_stmt 1 discriminator 3
 431 0036 1121     		movs	r1, #17
 432 0038 034A     		ldr	r2, .L38+4
 433 003a D154     		strb	r1, [r2, r3]
 258:main.c        ****         display_data[i] = 17; // ą¤ąŠčĆąŠąČąĮčīąŠ
 434              		.loc 1 258 0 discriminator 3
 435 003c 0133     		adds	r3, r3, #1
 436              	.LVL33:
 437              	.L36:
 258:main.c        ****         display_data[i] = 17; // ą¤ąŠčĆąŠąČąĮčīąŠ
 438              		.loc 1 258 0 is_stmt 0 discriminator 1
 439 003e 072B     		cmp	r3, #7
 440 0040 F9DD     		ble	.L37
 441              	.LBE8:
 260:main.c        ****     }
 261:main.c        **** }
 442              		.loc 1 261 0 is_stmt 1
 443              		@ sp needed
 444 0042 7047     		bx	lr
 445              	.L39:
 446              		.align	2
 447              	.L38:
 448 0044 00000000 		.word	.LANCHOR1
 449 0048 00000000 		.word	.LANCHOR2
 450              		.cfi_endproc
 451              	.LFE41:
 452              		.size	startPasswordInput, .-startPasswordInput
 453              		.section	.text.readMatrix,"ax",%progbits
 454              		.align	2
 455              		.code	16
 456              		.thumb_func
 457              		.type	readMatrix, %function
 458              	readMatrix:
 459              	.LFB36:
 161:main.c        ****     for (int col = 0; col < 3; col++) {
 460              		.loc 1 161 0
 461              		.cfi_startproc
 462              		@ args = 0, pretend = 0, frame = 0
 463              		@ frame_needed = 0, uses_anonymous_args = 0
 464 0000 70B5     		push	{r4, r5, r6, lr}
ARM GAS  C:\Users\User\AppData\Local\Temp\ccwxAVLH.s 			page 14


 465              		.cfi_def_cfa_offset 16
 466              		.cfi_offset 4, -16
 467              		.cfi_offset 5, -12
 468              		.cfi_offset 6, -8
 469              		.cfi_offset 14, -4
 470              	.LVL34:
 471              	.LBB9:
 162:main.c        ****         // ąÉą║čéąĖą▓čāą▓ą░čéąĖ čüčéąŠą▓ą┐ąĄčåčī
 472              		.loc 1 162 0
 473 0002 0025     		movs	r5, #0
 474 0004 21E0     		b	.L41
 475              	.LVL35:
 476              	.L44:
 164:main.c        ****         COLUMN_Write[col](0);
 477              		.loc 1 164 0
 478 0006 124E     		ldr	r6, .L45
 479 0008 AC00     		lsls	r4, r5, #2
 480 000a 0620     		movs	r0, #6
 481 000c A359     		ldr	r3, [r4, r6]
 482 000e 9847     		blx	r3
 483              	.LVL36:
 165:main.c        ****         CyDelayUs(10);
 484              		.loc 1 165 0
 485 0010 3419     		adds	r4, r6, r4
 486 0012 2369     		ldr	r3, [r4, #16]
 487 0014 0020     		movs	r0, #0
 488 0016 9847     		blx	r3
 489              	.LVL37:
 166:main.c        ****         
 490              		.loc 1 166 0
 491 0018 0A20     		movs	r0, #10
 492 001a FFF7FEFF 		bl	CyDelayUs
 493              	.LVL38:
 494              	.LBB10:
 169:main.c        ****             keys[row][col] = ROW_Read[row]();
 495              		.loc 1 169 0
 496 001e 0024     		movs	r4, #0
 497 0020 0BE0     		b	.L42
 498              	.LVL39:
 499              	.L43:
 170:main.c        ****         }
 500              		.loc 1 170 0 discriminator 3
 501 0022 A300     		lsls	r3, r4, #2
 502 0024 0A4A     		ldr	r2, .L45
 503 0026 D318     		adds	r3, r2, r3
 504 0028 DB69     		ldr	r3, [r3, #28]
 505 002a 9847     		blx	r3
 506              	.LVL40:
 507 002c 6300     		lsls	r3, r4, #1
 508 002e 1B19     		adds	r3, r3, r4
 509 0030 084A     		ldr	r2, .L45+4
 510 0032 D318     		adds	r3, r2, r3
 511 0034 5B19     		adds	r3, r3, r5
 512 0036 1873     		strb	r0, [r3, #12]
 169:main.c        ****             keys[row][col] = ROW_Read[row]();
 513              		.loc 1 169 0 discriminator 3
 514 0038 0134     		adds	r4, r4, #1
ARM GAS  C:\Users\User\AppData\Local\Temp\ccwxAVLH.s 			page 15


 515              	.LVL41:
 516              	.L42:
 169:main.c        ****             keys[row][col] = ROW_Read[row]();
 517              		.loc 1 169 0 is_stmt 0 discriminator 1
 518 003a 032C     		cmp	r4, #3
 519 003c F1DD     		ble	.L43
 520              	.LBE10:
 174:main.c        ****     }
 521              		.loc 1 174 0 is_stmt 1 discriminator 2
 522 003e AA00     		lsls	r2, r5, #2
 523 0040 034B     		ldr	r3, .L45
 524 0042 D358     		ldr	r3, [r2, r3]
 525 0044 0120     		movs	r0, #1
 526 0046 9847     		blx	r3
 527              	.LVL42:
 162:main.c        ****         // ąÉą║čéąĖą▓čāą▓ą░čéąĖ čüčéąŠą▓ą┐ąĄčåčī
 528              		.loc 1 162 0 discriminator 2
 529 0048 0135     		adds	r5, r5, #1
 530              	.LVL43:
 531              	.L41:
 162:main.c        ****         // ąÉą║čéąĖą▓čāą▓ą░čéąĖ čüčéąŠą▓ą┐ąĄčåčī
 532              		.loc 1 162 0 is_stmt 0 discriminator 1
 533 004a 022D     		cmp	r5, #2
 534 004c DBDD     		ble	.L44
 535              	.LBE9:
 176:main.c        **** 
 536              		.loc 1 176 0 is_stmt 1
 537              		@ sp needed
 538              	.LVL44:
 539 004e 70BD     		pop	{r4, r5, r6, pc}
 540              	.L46:
 541              		.align	2
 542              	.L45:
 543 0050 00000000 		.word	.LANCHOR0
 544 0054 00000000 		.word	.LANCHOR2
 545              		.cfi_endproc
 546              	.LFE36:
 547              		.size	readMatrix, .-readMatrix
 548              		.section	.text.sendDataSPI,"ax",%progbits
 549              		.align	2
 550              		.code	16
 551              		.thumb_func
 552              		.type	sendDataSPI, %function
 553              	sendDataSPI:
 554              	.LFB33:
 116:main.c        ****     for (uint8_t i = 0; i < 8; i++) {
 555              		.loc 1 116 0
 556              		.cfi_startproc
 557              		@ args = 0, pretend = 0, frame = 0
 558              		@ frame_needed = 0, uses_anonymous_args = 0
 559              	.LVL45:
 560 0000 70B5     		push	{r4, r5, r6, lr}
 561              		.cfi_def_cfa_offset 16
 562              		.cfi_offset 4, -16
 563              		.cfi_offset 5, -12
 564              		.cfi_offset 6, -8
 565              		.cfi_offset 14, -4
ARM GAS  C:\Users\User\AppData\Local\Temp\ccwxAVLH.s 			page 16


 566 0002 0500     		movs	r5, r0
 567              	.LVL46:
 568              	.LBB11:
 117:main.c        ****         if (data & (0x80 >> i)) {
 569              		.loc 1 117 0
 570 0004 0024     		movs	r4, #0
 571 0006 18E0     		b	.L48
 572              	.LVL47:
 573              	.L51:
 118:main.c        ****             Pin_DO_Write(1);
 574              		.loc 1 118 0
 575 0008 8023     		movs	r3, #128
 576 000a 2341     		asrs	r3, r3, r4
 577 000c 2B42     		tst	r3, r5
 578 000e 03D0     		beq	.L49
 119:main.c        ****         } else {
 579              		.loc 1 119 0
 580 0010 0120     		movs	r0, #1
 581 0012 FFF7FEFF 		bl	Pin_DO_Write
 582              	.LVL48:
 583 0016 02E0     		b	.L50
 584              	.L49:
 121:main.c        ****         }
 585              		.loc 1 121 0
 586 0018 0020     		movs	r0, #0
 587 001a FFF7FEFF 		bl	Pin_DO_Write
 588              	.LVL49:
 589              	.L50:
 123:main.c        ****         CyDelayUs(1);
 590              		.loc 1 123 0 discriminator 2
 591 001e 0120     		movs	r0, #1
 592 0020 FFF7FEFF 		bl	Pin_CLK_Write
 593              	.LVL50:
 124:main.c        ****         Pin_CLK_Write(0);
 594              		.loc 1 124 0 discriminator 2
 595 0024 0120     		movs	r0, #1
 596 0026 FFF7FEFF 		bl	CyDelayUs
 597              	.LVL51:
 125:main.c        ****         CyDelayUs(1);
 598              		.loc 1 125 0 discriminator 2
 599 002a 0020     		movs	r0, #0
 600 002c FFF7FEFF 		bl	Pin_CLK_Write
 601              	.LVL52:
 126:main.c        ****     }
 602              		.loc 1 126 0 discriminator 2
 603 0030 0120     		movs	r0, #1
 604 0032 FFF7FEFF 		bl	CyDelayUs
 605              	.LVL53:
 117:main.c        ****         if (data & (0x80 >> i)) {
 606              		.loc 1 117 0 discriminator 2
 607 0036 0134     		adds	r4, r4, #1
 608              	.LVL54:
 609 0038 E4B2     		uxtb	r4, r4
 610              	.LVL55:
 611              	.L48:
 117:main.c        ****         if (data & (0x80 >> i)) {
 612              		.loc 1 117 0 is_stmt 0 discriminator 1
ARM GAS  C:\Users\User\AppData\Local\Temp\ccwxAVLH.s 			page 17


 613 003a 072C     		cmp	r4, #7
 614 003c E4D9     		bls	.L51
 615              	.LBE11:
 128:main.c        **** 
 616              		.loc 1 128 0 is_stmt 1
 617              		@ sp needed
 618              	.LVL56:
 619 003e 70BD     		pop	{r4, r5, r6, pc}
 620              		.cfi_endproc
 621              	.LFE33:
 622              		.size	sendDataSPI, .-sendDataSPI
 623              		.section	.text.displayDigit,"ax",%progbits
 624              		.align	2
 625              		.code	16
 626              		.thumb_func
 627              		.type	displayDigit, %function
 628              	displayDigit:
 629              	.LFB34:
 132:main.c        ****     // ąÆąĖą▒č¢čĆ ą┐ąŠąĘąĖčåč¢čŚ (ą░ąĮąŠą┤)
 630              		.loc 1 132 0
 631              		.cfi_startproc
 632              		@ args = 0, pretend = 0, frame = 0
 633              		@ frame_needed = 0, uses_anonymous_args = 0
 634              	.LVL57:
 635 0000 10B5     		push	{r4, lr}
 636              		.cfi_def_cfa_offset 8
 637              		.cfi_offset 4, -8
 638              		.cfi_offset 14, -4
 639 0002 0300     		movs	r3, r0
 640 0004 0C00     		movs	r4, r1
 134:main.c        ****     sendDataSPI(position_mask);
 641              		.loc 1 134 0
 642 0006 0120     		movs	r0, #1
 643              	.LVL58:
 644 0008 9840     		lsls	r0, r0, r3
 645 000a C043     		mvns	r0, r0
 646 000c C0B2     		uxtb	r0, r0
 647              	.LVL59:
 135:main.c        ****     
 648              		.loc 1 135 0
 649 000e FFF7FEFF 		bl	sendDataSPI
 650              	.LVL60:
 138:main.c        ****         sendDataSPI(SEGMENT_CODES[digit]);
 651              		.loc 1 138 0
 652 0012 112C     		cmp	r4, #17
 653 0014 06D8     		bhi	.L53
 139:main.c        ****     } else {
 654              		.loc 1 139 0
 655 0016 0B4B     		ldr	r3, .L55
 656 0018 1C19     		adds	r4, r3, r4
 657 001a 2C23     		movs	r3, #44
 658 001c E05C     		ldrb	r0, [r4, r3]
 659 001e FFF7FEFF 		bl	sendDataSPI
 660              	.LVL61:
 661 0022 02E0     		b	.L54
 662              	.L53:
 141:main.c        ****     }
ARM GAS  C:\Users\User\AppData\Local\Temp\ccwxAVLH.s 			page 18


 663              		.loc 1 141 0
 664 0024 FF20     		movs	r0, #255
 665 0026 FFF7FEFF 		bl	sendDataSPI
 666              	.LVL62:
 667              	.L54:
 145:main.c        ****     CyDelayUs(1);
 668              		.loc 1 145 0
 669 002a 0120     		movs	r0, #1
 670 002c FFF7FEFF 		bl	Pin_Latch_Write
 671              	.LVL63:
 146:main.c        ****     Pin_Latch_Write(0);
 672              		.loc 1 146 0
 673 0030 0120     		movs	r0, #1
 674 0032 FFF7FEFF 		bl	CyDelayUs
 675              	.LVL64:
 147:main.c        ****     CyDelayUs(1);
 676              		.loc 1 147 0
 677 0036 0020     		movs	r0, #0
 678 0038 FFF7FEFF 		bl	Pin_Latch_Write
 679              	.LVL65:
 148:main.c        **** }
 680              		.loc 1 148 0
 681 003c 0120     		movs	r0, #1
 682 003e FFF7FEFF 		bl	CyDelayUs
 683              	.LVL66:
 149:main.c        **** 
 684              		.loc 1 149 0
 685              		@ sp needed
 686 0042 10BD     		pop	{r4, pc}
 687              	.L56:
 688              		.align	2
 689              	.L55:
 690 0044 00000000 		.word	.LANCHOR0
 691              		.cfi_endproc
 692              	.LFE34:
 693              		.size	displayDigit, .-displayDigit
 694              		.section	.text.Timer_Display_Handler,"ax",%progbits
 695              		.align	2
 696              		.global	Timer_Display_Handler
 697              		.code	16
 698              		.thumb_func
 699              		.type	Timer_Display_Handler, %function
 700              	Timer_Display_Handler:
 701              	.LFB32:
  92:main.c        ****     if (password_verified == 0) {
 702              		.loc 1 92 0
 703              		.cfi_startproc
 704              		@ args = 0, pretend = 0, frame = 0
 705              		@ frame_needed = 0, uses_anonymous_args = 0
 706 0000 10B5     		push	{r4, lr}
 707              		.cfi_def_cfa_offset 8
 708              		.cfi_offset 4, -8
 709              		.cfi_offset 14, -4
  93:main.c        ****         // ąŚą▓ąĖčćą░ą╣ąĮąĖą╣ čĆąĄąČąĖą╝
 710              		.loc 1 93 0
 711 0002 1D4B     		ldr	r3, .L67
 712 0004 5B78     		ldrb	r3, [r3, #1]
ARM GAS  C:\Users\User\AppData\Local\Temp\ccwxAVLH.s 			page 19


 713 0006 002B     		cmp	r3, #0
 714 0008 06D1     		bne	.L58
  95:main.c        ****     }
 715              		.loc 1 95 0
 716 000a 1B4B     		ldr	r3, .L67
 717 000c 987A     		ldrb	r0, [r3, #10]
 718 000e 1B4B     		ldr	r3, .L67+4
 719 0010 195C     		ldrb	r1, [r3, r0]
 720 0012 FFF7FEFF 		bl	displayDigit
 721              	.LVL67:
 722 0016 24E0     		b	.L59
 723              	.L58:
  97:main.c        ****         // ąÆč¢čĆąĮąĖą╣ ą┐ą░čĆąŠą╗čī - ą╝ąĖą│ą░ąĮąĮčÅ ą▓čüč¢čģ čüąĄą│ą╝ąĄąĮčéč¢ą▓
 724              		.loc 1 97 0
 725 0018 012B     		cmp	r3, #1
 726 001a 0AD1     		bne	.L60
  99:main.c        ****     }
 727              		.loc 1 99 0
 728 001c 164B     		ldr	r3, .L67
 729 001e 987A     		ldrb	r0, [r3, #10]
 730 0020 DB7A     		ldrb	r3, [r3, #11]
 731 0022 002B     		cmp	r3, #0
 732 0024 01D0     		beq	.L66
 733 0026 1021     		movs	r1, #16
 734 0028 00E0     		b	.L61
 735              	.L66:
 736 002a 1121     		movs	r1, #17
 737              	.L61:
  99:main.c        ****     }
 738              		.loc 1 99 0 is_stmt 0 discriminator 4
 739 002c FFF7FEFF 		bl	displayDigit
 740              	.LVL68:
 741 0030 17E0     		b	.L59
 742              	.L60:
 101:main.c        ****         // ąØąĄą▓č¢čĆąĮąĖą╣ ą┐ą░čĆąŠą╗čī - čłą░čģąŠą▓ąĄ ą╝ąĖą│ą░ąĮąĮčÅ
 743              		.loc 1 101 0 is_stmt 1
 744 0032 022B     		cmp	r3, #2
 745 0034 15D1     		bne	.L59
 103:main.c        ****             displayDigit(current_digit, 16);
 746              		.loc 1 103 0
 747 0036 104B     		ldr	r3, .L67
 748 0038 987A     		ldrb	r0, [r3, #10]
 749 003a 0123     		movs	r3, #1
 750 003c 0340     		ands	r3, r0
 751 003e 03D1     		bne	.L62
 103:main.c        ****             displayDigit(current_digit, 16);
 752              		.loc 1 103 0 is_stmt 0 discriminator 1
 753 0040 0D4A     		ldr	r2, .L67
 754 0042 D27A     		ldrb	r2, [r2, #11]
 755 0044 002A     		cmp	r2, #0
 756 0046 05D1     		bne	.L63
 757              	.L62:
 103:main.c        ****             displayDigit(current_digit, 16);
 758              		.loc 1 103 0 discriminator 3
 759 0048 002B     		cmp	r3, #0
 760 004a 07D0     		beq	.L64
 103:main.c        ****             displayDigit(current_digit, 16);
ARM GAS  C:\Users\User\AppData\Local\Temp\ccwxAVLH.s 			page 20


 761              		.loc 1 103 0 discriminator 4
 762 004c 0A4B     		ldr	r3, .L67
 763 004e DB7A     		ldrb	r3, [r3, #11]
 764 0050 002B     		cmp	r3, #0
 765 0052 03D1     		bne	.L64
 766              	.L63:
 104:main.c        ****         } else {
 767              		.loc 1 104 0 is_stmt 1
 768 0054 1021     		movs	r1, #16
 769 0056 FFF7FEFF 		bl	displayDigit
 770              	.LVL69:
 771 005a 02E0     		b	.L59
 772              	.L64:
 106:main.c        ****         }
 773              		.loc 1 106 0
 774 005c 1121     		movs	r1, #17
 775 005e FFF7FEFF 		bl	displayDigit
 776              	.LVL70:
 777              	.L59:
 110:main.c        ****     if (current_digit >= 8) current_digit = 0;
 778              		.loc 1 110 0
 779 0062 054A     		ldr	r2, .L67
 780 0064 937A     		ldrb	r3, [r2, #10]
 781 0066 0133     		adds	r3, r3, #1
 782 0068 DBB2     		uxtb	r3, r3
 783 006a 9372     		strb	r3, [r2, #10]
 111:main.c        **** }
 784              		.loc 1 111 0
 785 006c 072B     		cmp	r3, #7
 786 006e 02D9     		bls	.L57
 111:main.c        **** }
 787              		.loc 1 111 0 is_stmt 0 discriminator 1
 788 0070 0022     		movs	r2, #0
 789 0072 014B     		ldr	r3, .L67
 790 0074 9A72     		strb	r2, [r3, #10]
 791              	.L57:
 112:main.c        **** 
 792              		.loc 1 112 0 is_stmt 1
 793              		@ sp needed
 794 0076 10BD     		pop	{r4, pc}
 795              	.L68:
 796              		.align	2
 797              	.L67:
 798 0078 00000000 		.word	.LANCHOR1
 799 007c 00000000 		.word	.LANCHOR2
 800              		.cfi_endproc
 801              	.LFE32:
 802              		.size	Timer_Display_Handler, .-Timer_Display_Handler
 803              		.section	.text.main,"ax",%progbits
 804              		.align	2
 805              		.global	main
 806              		.code	16
 807              		.thumb_func
 808              		.type	main, %function
 809              	main:
 810              	.LFB42:
 262:main.c        **** 
ARM GAS  C:\Users\User\AppData\Local\Temp\ccwxAVLH.s 			page 21


 263:main.c        **** int main(void)
 264:main.c        **** {
 811              		.loc 1 264 0
 812              		.cfi_startproc
 813              		@ args = 0, pretend = 0, frame = 8
 814              		@ frame_needed = 0, uses_anonymous_args = 0
 815 0000 30B5     		push	{r4, r5, lr}
 816              		.cfi_def_cfa_offset 12
 817              		.cfi_offset 4, -12
 818              		.cfi_offset 5, -8
 819              		.cfi_offset 14, -4
 820 0002 83B0     		sub	sp, sp, #12
 821              		.cfi_def_cfa_offset 24
 265:main.c        ****     CyGlobalIntEnable;
 822              		.loc 1 265 0
 823              		.syntax divided
 824              	@ 265 "main.c" 1
 825 0004 62B6     		CPSIE   i
 826              	@ 0 "" 2
 266:main.c        ****     
 267:main.c        ****     // ąåąĮč¢čåč¢ą░ą╗č¢ąĘą░čåč¢čÅ čéą░ą╣ą╝ąĄčĆą░ ą┤ą╗čÅ ą┤ąĖąĮą░ą╝č¢čćąĮąŠčŚ č¢ąĮą┤ąĖą║ą░čåč¢čŚ
 268:main.c        ****     Timer_Start();
 827              		.loc 1 268 0
 828              		.thumb
 829              		.syntax unified
 830 0006 FFF7FEFF 		bl	Timer_Start
 831              	.LVL71:
 269:main.c        ****     Timer_Int_StartEx(Timer_Display_Handler);
 832              		.loc 1 269 0
 833 000a 4648     		ldr	r0, .L125
 834 000c FFF7FEFF 		bl	Timer_Int_StartEx
 835              	.LVL72:
 270:main.c        ****     
 271:main.c        ****     initMatrix();
 836              		.loc 1 271 0
 837 0010 FFF7FEFF 		bl	initMatrix
 838              	.LVL73:
 272:main.c        ****     
 273:main.c        ****     uint8_t last_key_state = 12;
 274:main.c        ****     uint32_t main_counter = 0;
 839              		.loc 1 274 0
 840 0014 0025     		movs	r5, #0
 273:main.c        ****     uint32_t main_counter = 0;
 841              		.loc 1 273 0
 842 0016 0C24     		movs	r4, #12
 843              	.LVL74:
 844              	.L111:
 275:main.c        ****     
 276:main.c        ****     for (;;) {
 277:main.c        ****         readMatrix();
 845              		.loc 1 277 0
 846 0018 FFF7FEFF 		bl	readMatrix
 847              	.LVL75:
 278:main.c        ****         
 279:main.c        ****         // ą×ą▒čĆąŠą▒ą║ą░ ąĮą░čéąĖčüą║ą░ąĮčī ą║ą╗ą░ą▓č¢čł
 280:main.c        ****         if (!password_mode && !password_verified) {
 848              		.loc 1 280 0
ARM GAS  C:\Users\User\AppData\Local\Temp\ccwxAVLH.s 			page 22


 849 001c 424B     		ldr	r3, .L125+4
 850 001e 1B78     		ldrb	r3, [r3]
 851 0020 002B     		cmp	r3, #0
 852 0022 00D0     		beq	.LCB770
 853 0024 84E0     		b	.L70	@long jump
 854              	.LCB770:
 855              		.loc 1 280 0 is_stmt 0 discriminator 1
 856 0026 404A     		ldr	r2, .L125+4
 857 0028 5278     		ldrb	r2, [r2, #1]
 858 002a 002A     		cmp	r2, #0
 859 002c 00D0     		beq	.LCB774
 860 002e 7FE0     		b	.L70	@long jump
 861              	.LCB774:
 281:main.c        ****             // ąŚą▓ąĖčćą░ą╣ąĮąĖą╣ čĆąĄąČąĖą╝
 282:main.c        ****             if (keys[0][0] == 0 && last_key_state != 1) {
 862              		.loc 1 282 0 is_stmt 1
 863 0030 3E4B     		ldr	r3, .L125+8
 864 0032 1B7B     		ldrb	r3, [r3, #12]
 865 0034 002B     		cmp	r3, #0
 866 0036 05D1     		bne	.L71
 867              		.loc 1 282 0 is_stmt 0 discriminator 1
 868 0038 012C     		cmp	r4, #1
 869 003a 03D0     		beq	.L71
 870              	.LVL76:
 283:main.c        ****                 last_key_state = 1;
 284:main.c        ****                 display_data[0] = 1;
 871              		.loc 1 284 0 is_stmt 1
 872 003c 0132     		adds	r2, r2, #1
 873 003e 3B4B     		ldr	r3, .L125+8
 874 0040 1A70     		strb	r2, [r3]
 283:main.c        ****                 last_key_state = 1;
 875              		.loc 1 283 0
 876 0042 0124     		movs	r4, #1
 877              	.LVL77:
 878              	.L71:
 285:main.c        ****             }
 286:main.c        ****             if (keys[0][1] == 0 && last_key_state != 2) {
 879              		.loc 1 286 0
 880 0044 394B     		ldr	r3, .L125+8
 881 0046 5B7B     		ldrb	r3, [r3, #13]
 882 0048 002B     		cmp	r3, #0
 883 004a 05D1     		bne	.L72
 884              		.loc 1 286 0 is_stmt 0 discriminator 1
 885 004c 022C     		cmp	r4, #2
 886 004e 03D0     		beq	.L72
 887              	.LVL78:
 287:main.c        ****                 last_key_state = 2;
 288:main.c        ****                 display_data[0] = 2;
 888              		.loc 1 288 0 is_stmt 1
 889 0050 0222     		movs	r2, #2
 890 0052 364B     		ldr	r3, .L125+8
 891 0054 1A70     		strb	r2, [r3]
 287:main.c        ****                 last_key_state = 2;
 892              		.loc 1 287 0
 893 0056 0224     		movs	r4, #2
 894              	.LVL79:
 895              	.L72:
ARM GAS  C:\Users\User\AppData\Local\Temp\ccwxAVLH.s 			page 23


 289:main.c        ****             }
 290:main.c        ****             if (keys[0][2] == 0 && last_key_state != 3) {
 896              		.loc 1 290 0
 897 0058 344B     		ldr	r3, .L125+8
 898 005a 9B7B     		ldrb	r3, [r3, #14]
 899 005c 002B     		cmp	r3, #0
 900 005e 05D1     		bne	.L73
 901              		.loc 1 290 0 is_stmt 0 discriminator 1
 902 0060 032C     		cmp	r4, #3
 903 0062 03D0     		beq	.L73
 904              	.LVL80:
 291:main.c        ****                 last_key_state = 3;
 292:main.c        ****                 display_data[0] = 3;
 905              		.loc 1 292 0 is_stmt 1
 906 0064 0322     		movs	r2, #3
 907 0066 314B     		ldr	r3, .L125+8
 908 0068 1A70     		strb	r2, [r3]
 291:main.c        ****                 last_key_state = 3;
 909              		.loc 1 291 0
 910 006a 0324     		movs	r4, #3
 911              	.LVL81:
 912              	.L73:
 293:main.c        ****             }
 294:main.c        ****             if (keys[1][0] == 0 && last_key_state != 4) {
 913              		.loc 1 294 0
 914 006c 2F4B     		ldr	r3, .L125+8
 915 006e DB7B     		ldrb	r3, [r3, #15]
 916 0070 002B     		cmp	r3, #0
 917 0072 05D1     		bne	.L74
 918              		.loc 1 294 0 is_stmt 0 discriminator 1
 919 0074 042C     		cmp	r4, #4
 920 0076 03D0     		beq	.L74
 921              	.LVL82:
 295:main.c        ****                 last_key_state = 4;
 296:main.c        ****                 display_data[0] = 4;
 922              		.loc 1 296 0 is_stmt 1
 923 0078 0422     		movs	r2, #4
 924 007a 2C4B     		ldr	r3, .L125+8
 925 007c 1A70     		strb	r2, [r3]
 295:main.c        ****                 last_key_state = 4;
 926              		.loc 1 295 0
 927 007e 0424     		movs	r4, #4
 928              	.LVL83:
 929              	.L74:
 297:main.c        ****             }
 298:main.c        ****             if (keys[1][1] == 0 && last_key_state != 5) {
 930              		.loc 1 298 0
 931 0080 2A4B     		ldr	r3, .L125+8
 932 0082 1B7C     		ldrb	r3, [r3, #16]
 933 0084 002B     		cmp	r3, #0
 934 0086 05D1     		bne	.L75
 935              		.loc 1 298 0 is_stmt 0 discriminator 1
 936 0088 052C     		cmp	r4, #5
 937 008a 03D0     		beq	.L75
 938              	.LVL84:
 299:main.c        ****                 last_key_state = 5;
 300:main.c        ****                 display_data[0] = 5;
ARM GAS  C:\Users\User\AppData\Local\Temp\ccwxAVLH.s 			page 24


 939              		.loc 1 300 0 is_stmt 1
 940 008c 0522     		movs	r2, #5
 941 008e 274B     		ldr	r3, .L125+8
 942 0090 1A70     		strb	r2, [r3]
 299:main.c        ****                 last_key_state = 5;
 943              		.loc 1 299 0
 944 0092 0524     		movs	r4, #5
 945              	.LVL85:
 946              	.L75:
 301:main.c        ****             }
 302:main.c        ****             if (keys[1][2] == 0 && last_key_state != 6) {
 947              		.loc 1 302 0
 948 0094 254B     		ldr	r3, .L125+8
 949 0096 5B7C     		ldrb	r3, [r3, #17]
 950 0098 002B     		cmp	r3, #0
 951 009a 05D1     		bne	.L76
 952              		.loc 1 302 0 is_stmt 0 discriminator 1
 953 009c 062C     		cmp	r4, #6
 954 009e 03D0     		beq	.L76
 955              	.LVL86:
 303:main.c        ****                 last_key_state = 6;
 304:main.c        ****                 display_data[0] = 6;
 956              		.loc 1 304 0 is_stmt 1
 957 00a0 0622     		movs	r2, #6
 958 00a2 224B     		ldr	r3, .L125+8
 959 00a4 1A70     		strb	r2, [r3]
 303:main.c        ****                 last_key_state = 6;
 960              		.loc 1 303 0
 961 00a6 0624     		movs	r4, #6
 962              	.LVL87:
 963              	.L76:
 305:main.c        ****             }
 306:main.c        ****             if (keys[2][0] == 0 && last_key_state != 7) {
 964              		.loc 1 306 0
 965 00a8 204B     		ldr	r3, .L125+8
 966 00aa 9B7C     		ldrb	r3, [r3, #18]
 967 00ac 002B     		cmp	r3, #0
 968 00ae 05D1     		bne	.L77
 969              		.loc 1 306 0 is_stmt 0 discriminator 1
 970 00b0 072C     		cmp	r4, #7
 971 00b2 03D0     		beq	.L77
 972              	.LVL88:
 307:main.c        ****                 last_key_state = 7;
 308:main.c        ****                 display_data[0] = 7;
 973              		.loc 1 308 0 is_stmt 1
 974 00b4 0722     		movs	r2, #7
 975 00b6 1D4B     		ldr	r3, .L125+8
 976 00b8 1A70     		strb	r2, [r3]
 307:main.c        ****                 last_key_state = 7;
 977              		.loc 1 307 0
 978 00ba 0724     		movs	r4, #7
 979              	.LVL89:
 980              	.L77:
 309:main.c        ****             }
 310:main.c        ****             if (keys[2][1] == 0 && last_key_state != 8) {
 981              		.loc 1 310 0
 982 00bc 1B4B     		ldr	r3, .L125+8
ARM GAS  C:\Users\User\AppData\Local\Temp\ccwxAVLH.s 			page 25


 983 00be DB7C     		ldrb	r3, [r3, #19]
 984 00c0 002B     		cmp	r3, #0
 985 00c2 05D1     		bne	.L78
 986              		.loc 1 310 0 is_stmt 0 discriminator 1
 987 00c4 082C     		cmp	r4, #8
 988 00c6 03D0     		beq	.L78
 989              	.LVL90:
 311:main.c        ****                 last_key_state = 8;
 312:main.c        ****                 display_data[0] = 8;
 990              		.loc 1 312 0 is_stmt 1
 991 00c8 0822     		movs	r2, #8
 992 00ca 184B     		ldr	r3, .L125+8
 993 00cc 1A70     		strb	r2, [r3]
 311:main.c        ****                 last_key_state = 8;
 994              		.loc 1 311 0
 995 00ce 0824     		movs	r4, #8
 996              	.LVL91:
 997              	.L78:
 313:main.c        ****             }
 314:main.c        ****             if (keys[2][2] == 0 && last_key_state != 9) {
 998              		.loc 1 314 0
 999 00d0 164B     		ldr	r3, .L125+8
 1000 00d2 1B7D     		ldrb	r3, [r3, #20]
 1001 00d4 002B     		cmp	r3, #0
 1002 00d6 05D1     		bne	.L79
 1003              		.loc 1 314 0 is_stmt 0 discriminator 1
 1004 00d8 092C     		cmp	r4, #9
 1005 00da 03D0     		beq	.L79
 1006              	.LVL92:
 315:main.c        ****                 last_key_state = 9;
 316:main.c        ****                 display_data[0] = 9;
 1007              		.loc 1 316 0 is_stmt 1
 1008 00dc 0922     		movs	r2, #9
 1009 00de 134B     		ldr	r3, .L125+8
 1010 00e0 1A70     		strb	r2, [r3]
 315:main.c        ****                 last_key_state = 9;
 1011              		.loc 1 315 0
 1012 00e2 0924     		movs	r4, #9
 1013              	.LVL93:
 1014              	.L79:
 317:main.c        ****             }
 318:main.c        ****             if (keys[3][1] == 0 && last_key_state != 0) {
 1015              		.loc 1 318 0
 1016 00e4 114B     		ldr	r3, .L125+8
 1017 00e6 9B7D     		ldrb	r3, [r3, #22]
 1018 00e8 002B     		cmp	r3, #0
 1019 00ea 05D1     		bne	.L80
 1020              		.loc 1 318 0 is_stmt 0 discriminator 1
 1021 00ec 002C     		cmp	r4, #0
 1022 00ee 03D0     		beq	.L80
 1023              	.LVL94:
 319:main.c        ****                 last_key_state = 0;
 320:main.c        ****                 display_data[0] = 0;
 1024              		.loc 1 320 0 is_stmt 1
 1025 00f0 0022     		movs	r2, #0
 1026 00f2 0E4B     		ldr	r3, .L125+8
 1027 00f4 1A70     		strb	r2, [r3]
ARM GAS  C:\Users\User\AppData\Local\Temp\ccwxAVLH.s 			page 26


 319:main.c        ****                 last_key_state = 0;
 1028              		.loc 1 319 0
 1029 00f6 0024     		movs	r4, #0
 1030              	.LVL95:
 1031              	.L80:
 321:main.c        ****             }
 322:main.c        ****             
 323:main.c        ****             // ąÜąĮąŠą┐ą║ą░ * - ąĘą░ą┐čāčüą║ čéą░ą╣ą╝ąĄčĆą░
 324:main.c        ****             if (keys[3][0] == 0 && last_key_state != 10) {
 1032              		.loc 1 324 0
 1033 00f8 0C4B     		ldr	r3, .L125+8
 1034 00fa 5B7D     		ldrb	r3, [r3, #21]
 1035 00fc 002B     		cmp	r3, #0
 1036 00fe 04D1     		bne	.L81
 1037              		.loc 1 324 0 is_stmt 0 discriminator 1
 1038 0100 0A2C     		cmp	r4, #10
 1039 0102 02D0     		beq	.L81
 1040              	.LVL96:
 325:main.c        ****                 last_key_state = 10;
 326:main.c        ****                 startTimer();
 1041              		.loc 1 326 0 is_stmt 1
 1042 0104 FFF7FEFF 		bl	startTimer
 1043              	.LVL97:
 325:main.c        ****                 last_key_state = 10;
 1044              		.loc 1 325 0
 1045 0108 0A24     		movs	r4, #10
 1046              	.LVL98:
 1047              	.L81:
 327:main.c        ****             }
 328:main.c        ****             
 329:main.c        ****             // ąÜąĮąŠą┐ą║ą░ # - ą▓ą▓č¢ą┤ ą┐ą░čĆąŠą╗čÄ
 330:main.c        ****             if (keys[3][2] == 0 && last_key_state != 11) {
 1048              		.loc 1 330 0
 1049 010a 084B     		ldr	r3, .L125+8
 1050 010c DB7D     		ldrb	r3, [r3, #23]
 1051 010e 002B     		cmp	r3, #0
 1052 0110 00D0     		beq	.LCB942
 1053 0112 DBE0     		b	.L82	@long jump
 1054              	.LCB942:
 1055              		.loc 1 330 0 is_stmt 0 discriminator 1
 1056 0114 0B2C     		cmp	r4, #11
 1057 0116 00D1     		bne	.LCB944
 1058 0118 D8E0     		b	.L82	@long jump
 1059              	.LCB944:
 1060              	.LVL99:
 331:main.c        ****                 last_key_state = 11;
 332:main.c        ****                 startPasswordInput();
 1061              		.loc 1 332 0 is_stmt 1
 1062 011a FFF7FEFF 		bl	startPasswordInput
 1063              	.LVL100:
 331:main.c        ****                 last_key_state = 11;
 1064              		.loc 1 331 0
 1065 011e 0B24     		movs	r4, #11
 1066 0120 D4E0     		b	.L82
 1067              	.L126:
 1068 0122 C046     		.align	2
 1069              	.L125:
ARM GAS  C:\Users\User\AppData\Local\Temp\ccwxAVLH.s 			page 27


 1070 0124 00000000 		.word	Timer_Display_Handler
 1071 0128 00000000 		.word	.LANCHOR1
 1072 012c 00000000 		.word	.LANCHOR2
 1073              	.LVL101:
 1074              	.L70:
 333:main.c        ****             }
 334:main.c        ****         }
 335:main.c        ****         else if (password_mode) {
 1075              		.loc 1 335 0
 1076 0130 002B     		cmp	r3, #0
 1077 0132 00D1     		bne	.LCB963
 1078 0134 CAE0     		b	.L82	@long jump
 1079              	.LCB963:
 336:main.c        ****             // ąĀąĄąČąĖą╝ ą▓ą▓ąŠą┤čā ą┐ą░čĆąŠą╗čÄ
 337:main.c        ****             if (keys[0][0] == 0 && last_key_state != 1 && input_index < 4) {
 1080              		.loc 1 337 0
 1081 0136 B84B     		ldr	r3, .L127
 1082 0138 1B7B     		ldrb	r3, [r3, #12]
 1083 013a 002B     		cmp	r3, #0
 1084 013c 0ED1     		bne	.L83
 1085              		.loc 1 337 0 is_stmt 0 discriminator 1
 1086 013e 012C     		cmp	r4, #1
 1087 0140 0CD0     		beq	.L83
 1088              		.loc 1 337 0 discriminator 2
 1089 0142 B64B     		ldr	r3, .L127+4
 1090 0144 1B7A     		ldrb	r3, [r3, #8]
 1091 0146 032B     		cmp	r3, #3
 1092 0148 08D8     		bhi	.L83
 1093              	.LVL102:
 338:main.c        ****                 last_key_state = 1;
 339:main.c        ****                 input_buffer[input_index] = 1;
 1094              		.loc 1 339 0 is_stmt 1
 1095 014a B44A     		ldr	r2, .L127+4
 1096 014c D018     		adds	r0, r2, r3
 1097 014e 0121     		movs	r1, #1
 1098 0150 0171     		strb	r1, [r0, #4]
 340:main.c        ****                 display_data[input_index] = 1;
 1099              		.loc 1 340 0
 1100 0152 B148     		ldr	r0, .L127
 1101 0154 C154     		strb	r1, [r0, r3]
 341:main.c        ****                 input_index++;
 1102              		.loc 1 341 0
 1103 0156 0133     		adds	r3, r3, #1
 1104 0158 1372     		strb	r3, [r2, #8]
 338:main.c        ****                 last_key_state = 1;
 1105              		.loc 1 338 0
 1106 015a 0124     		movs	r4, #1
 1107              	.LVL103:
 1108              	.L83:
 342:main.c        ****             }
 343:main.c        ****             if (keys[0][1] == 0 && last_key_state != 2 && input_index < 4) {
 1109              		.loc 1 343 0
 1110 015c AE4B     		ldr	r3, .L127
 1111 015e 5B7B     		ldrb	r3, [r3, #13]
 1112 0160 002B     		cmp	r3, #0
 1113 0162 0ED1     		bne	.L84
 1114              		.loc 1 343 0 is_stmt 0 discriminator 1
ARM GAS  C:\Users\User\AppData\Local\Temp\ccwxAVLH.s 			page 28


 1115 0164 022C     		cmp	r4, #2
 1116 0166 0CD0     		beq	.L84
 1117              		.loc 1 343 0 discriminator 2
 1118 0168 AC4B     		ldr	r3, .L127+4
 1119 016a 1B7A     		ldrb	r3, [r3, #8]
 1120 016c 032B     		cmp	r3, #3
 1121 016e 08D8     		bhi	.L84
 1122              	.LVL104:
 344:main.c        ****                 last_key_state = 2;
 345:main.c        ****                 input_buffer[input_index] = 2;
 1123              		.loc 1 345 0 is_stmt 1
 1124 0170 AA4A     		ldr	r2, .L127+4
 1125 0172 D018     		adds	r0, r2, r3
 1126 0174 0221     		movs	r1, #2
 1127 0176 0171     		strb	r1, [r0, #4]
 346:main.c        ****                 display_data[input_index] = 2;
 1128              		.loc 1 346 0
 1129 0178 A748     		ldr	r0, .L127
 1130 017a C154     		strb	r1, [r0, r3]
 347:main.c        ****                 input_index++;
 1131              		.loc 1 347 0
 1132 017c 0133     		adds	r3, r3, #1
 1133 017e 1372     		strb	r3, [r2, #8]
 344:main.c        ****                 last_key_state = 2;
 1134              		.loc 1 344 0
 1135 0180 0224     		movs	r4, #2
 1136              	.LVL105:
 1137              	.L84:
 348:main.c        ****             }
 349:main.c        ****             if (keys[0][2] == 0 && last_key_state != 3 && input_index < 4) {
 1138              		.loc 1 349 0
 1139 0182 A54B     		ldr	r3, .L127
 1140 0184 9B7B     		ldrb	r3, [r3, #14]
 1141 0186 002B     		cmp	r3, #0
 1142 0188 0ED1     		bne	.L85
 1143              		.loc 1 349 0 is_stmt 0 discriminator 1
 1144 018a 032C     		cmp	r4, #3
 1145 018c 0CD0     		beq	.L85
 1146              		.loc 1 349 0 discriminator 2
 1147 018e A34B     		ldr	r3, .L127+4
 1148 0190 1B7A     		ldrb	r3, [r3, #8]
 1149 0192 032B     		cmp	r3, #3
 1150 0194 08D8     		bhi	.L85
 1151              	.LVL106:
 350:main.c        ****                 last_key_state = 3;
 351:main.c        ****                 input_buffer[input_index] = 3;
 1152              		.loc 1 351 0 is_stmt 1
 1153 0196 A14A     		ldr	r2, .L127+4
 1154 0198 D018     		adds	r0, r2, r3
 1155 019a 0321     		movs	r1, #3
 1156 019c 0171     		strb	r1, [r0, #4]
 352:main.c        ****                 display_data[input_index] = 3;
 1157              		.loc 1 352 0
 1158 019e 9E48     		ldr	r0, .L127
 1159 01a0 C154     		strb	r1, [r0, r3]
 353:main.c        ****                 input_index++;
 1160              		.loc 1 353 0
ARM GAS  C:\Users\User\AppData\Local\Temp\ccwxAVLH.s 			page 29


 1161 01a2 0133     		adds	r3, r3, #1
 1162 01a4 1372     		strb	r3, [r2, #8]
 350:main.c        ****                 last_key_state = 3;
 1163              		.loc 1 350 0
 1164 01a6 0324     		movs	r4, #3
 1165              	.LVL107:
 1166              	.L85:
 354:main.c        ****             }
 355:main.c        ****             if (keys[1][0] == 0 && last_key_state != 4 && input_index < 4) {
 1167              		.loc 1 355 0
 1168 01a8 9B4B     		ldr	r3, .L127
 1169 01aa DB7B     		ldrb	r3, [r3, #15]
 1170 01ac 002B     		cmp	r3, #0
 1171 01ae 0ED1     		bne	.L86
 1172              		.loc 1 355 0 is_stmt 0 discriminator 1
 1173 01b0 042C     		cmp	r4, #4
 1174 01b2 0CD0     		beq	.L86
 1175              		.loc 1 355 0 discriminator 2
 1176 01b4 994B     		ldr	r3, .L127+4
 1177 01b6 1B7A     		ldrb	r3, [r3, #8]
 1178 01b8 032B     		cmp	r3, #3
 1179 01ba 08D8     		bhi	.L86
 1180              	.LVL108:
 356:main.c        ****                 last_key_state = 4;
 357:main.c        ****                 input_buffer[input_index] = 4;
 1181              		.loc 1 357 0 is_stmt 1
 1182 01bc 974A     		ldr	r2, .L127+4
 1183 01be D018     		adds	r0, r2, r3
 1184 01c0 0421     		movs	r1, #4
 1185 01c2 0171     		strb	r1, [r0, #4]
 358:main.c        ****                 display_data[input_index] = 4;
 1186              		.loc 1 358 0
 1187 01c4 9448     		ldr	r0, .L127
 1188 01c6 C154     		strb	r1, [r0, r3]
 359:main.c        ****                 input_index++;
 1189              		.loc 1 359 0
 1190 01c8 0133     		adds	r3, r3, #1
 1191 01ca 1372     		strb	r3, [r2, #8]
 356:main.c        ****                 last_key_state = 4;
 1192              		.loc 1 356 0
 1193 01cc 0424     		movs	r4, #4
 1194              	.LVL109:
 1195              	.L86:
 360:main.c        ****             }
 361:main.c        ****             if (keys[1][1] == 0 && last_key_state != 5 && input_index < 4) {
 1196              		.loc 1 361 0
 1197 01ce 924B     		ldr	r3, .L127
 1198 01d0 1B7C     		ldrb	r3, [r3, #16]
 1199 01d2 002B     		cmp	r3, #0
 1200 01d4 0ED1     		bne	.L87
 1201              		.loc 1 361 0 is_stmt 0 discriminator 1
 1202 01d6 052C     		cmp	r4, #5
 1203 01d8 0CD0     		beq	.L87
 1204              		.loc 1 361 0 discriminator 2
 1205 01da 904B     		ldr	r3, .L127+4
 1206 01dc 1B7A     		ldrb	r3, [r3, #8]
 1207 01de 032B     		cmp	r3, #3
ARM GAS  C:\Users\User\AppData\Local\Temp\ccwxAVLH.s 			page 30


 1208 01e0 08D8     		bhi	.L87
 1209              	.LVL110:
 362:main.c        ****                 last_key_state = 5;
 363:main.c        ****                 input_buffer[input_index] = 5;
 1210              		.loc 1 363 0 is_stmt 1
 1211 01e2 8E4A     		ldr	r2, .L127+4
 1212 01e4 D018     		adds	r0, r2, r3
 1213 01e6 0521     		movs	r1, #5
 1214 01e8 0171     		strb	r1, [r0, #4]
 364:main.c        ****                 display_data[input_index] = 5;
 1215              		.loc 1 364 0
 1216 01ea 8B48     		ldr	r0, .L127
 1217 01ec C154     		strb	r1, [r0, r3]
 365:main.c        ****                 input_index++;
 1218              		.loc 1 365 0
 1219 01ee 0133     		adds	r3, r3, #1
 1220 01f0 1372     		strb	r3, [r2, #8]
 362:main.c        ****                 last_key_state = 5;
 1221              		.loc 1 362 0
 1222 01f2 0524     		movs	r4, #5
 1223              	.LVL111:
 1224              	.L87:
 366:main.c        ****             }
 367:main.c        ****             if (keys[1][2] == 0 && last_key_state != 6 && input_index < 4) {
 1225              		.loc 1 367 0
 1226 01f4 884B     		ldr	r3, .L127
 1227 01f6 5B7C     		ldrb	r3, [r3, #17]
 1228 01f8 002B     		cmp	r3, #0
 1229 01fa 0ED1     		bne	.L88
 1230              		.loc 1 367 0 is_stmt 0 discriminator 1
 1231 01fc 062C     		cmp	r4, #6
 1232 01fe 0CD0     		beq	.L88
 1233              		.loc 1 367 0 discriminator 2
 1234 0200 864B     		ldr	r3, .L127+4
 1235 0202 1B7A     		ldrb	r3, [r3, #8]
 1236 0204 032B     		cmp	r3, #3
 1237 0206 08D8     		bhi	.L88
 1238              	.LVL112:
 368:main.c        ****                 last_key_state = 6;
 369:main.c        ****                 input_buffer[input_index] = 6;
 1239              		.loc 1 369 0 is_stmt 1
 1240 0208 844A     		ldr	r2, .L127+4
 1241 020a D018     		adds	r0, r2, r3
 1242 020c 0621     		movs	r1, #6
 1243 020e 0171     		strb	r1, [r0, #4]
 370:main.c        ****                 display_data[input_index] = 6;
 1244              		.loc 1 370 0
 1245 0210 8148     		ldr	r0, .L127
 1246 0212 C154     		strb	r1, [r0, r3]
 371:main.c        ****                 input_index++;
 1247              		.loc 1 371 0
 1248 0214 0133     		adds	r3, r3, #1
 1249 0216 1372     		strb	r3, [r2, #8]
 368:main.c        ****                 last_key_state = 6;
 1250              		.loc 1 368 0
 1251 0218 0624     		movs	r4, #6
 1252              	.LVL113:
ARM GAS  C:\Users\User\AppData\Local\Temp\ccwxAVLH.s 			page 31


 1253              	.L88:
 372:main.c        ****             }
 373:main.c        ****             if (keys[2][0] == 0 && last_key_state != 7 && input_index < 4) {
 1254              		.loc 1 373 0
 1255 021a 7F4B     		ldr	r3, .L127
 1256 021c 9B7C     		ldrb	r3, [r3, #18]
 1257 021e 002B     		cmp	r3, #0
 1258 0220 0ED1     		bne	.L89
 1259              		.loc 1 373 0 is_stmt 0 discriminator 1
 1260 0222 072C     		cmp	r4, #7
 1261 0224 0CD0     		beq	.L89
 1262              		.loc 1 373 0 discriminator 2
 1263 0226 7D4B     		ldr	r3, .L127+4
 1264 0228 1B7A     		ldrb	r3, [r3, #8]
 1265 022a 032B     		cmp	r3, #3
 1266 022c 08D8     		bhi	.L89
 1267              	.LVL114:
 374:main.c        ****                 last_key_state = 7;
 375:main.c        ****                 input_buffer[input_index] = 7;
 1268              		.loc 1 375 0 is_stmt 1
 1269 022e 7B4A     		ldr	r2, .L127+4
 1270 0230 D018     		adds	r0, r2, r3
 1271 0232 0721     		movs	r1, #7
 1272 0234 0171     		strb	r1, [r0, #4]
 376:main.c        ****                 display_data[input_index] = 7;
 1273              		.loc 1 376 0
 1274 0236 7848     		ldr	r0, .L127
 1275 0238 C154     		strb	r1, [r0, r3]
 377:main.c        ****                 input_index++;
 1276              		.loc 1 377 0
 1277 023a 0133     		adds	r3, r3, #1
 1278 023c 1372     		strb	r3, [r2, #8]
 374:main.c        ****                 last_key_state = 7;
 1279              		.loc 1 374 0
 1280 023e 0724     		movs	r4, #7
 1281              	.LVL115:
 1282              	.L89:
 378:main.c        ****             }
 379:main.c        ****             if (keys[2][1] == 0 && last_key_state != 8 && input_index < 4) {
 1283              		.loc 1 379 0
 1284 0240 754B     		ldr	r3, .L127
 1285 0242 DB7C     		ldrb	r3, [r3, #19]
 1286 0244 002B     		cmp	r3, #0
 1287 0246 0ED1     		bne	.L90
 1288              		.loc 1 379 0 is_stmt 0 discriminator 1
 1289 0248 082C     		cmp	r4, #8
 1290 024a 0CD0     		beq	.L90
 1291              		.loc 1 379 0 discriminator 2
 1292 024c 734B     		ldr	r3, .L127+4
 1293 024e 1B7A     		ldrb	r3, [r3, #8]
 1294 0250 032B     		cmp	r3, #3
 1295 0252 08D8     		bhi	.L90
 1296              	.LVL116:
 380:main.c        ****                 last_key_state = 8;
 381:main.c        ****                 input_buffer[input_index] = 8;
 1297              		.loc 1 381 0 is_stmt 1
 1298 0254 714A     		ldr	r2, .L127+4
ARM GAS  C:\Users\User\AppData\Local\Temp\ccwxAVLH.s 			page 32


 1299 0256 D018     		adds	r0, r2, r3
 1300 0258 0821     		movs	r1, #8
 1301 025a 0171     		strb	r1, [r0, #4]
 382:main.c        ****                 display_data[input_index] = 8;
 1302              		.loc 1 382 0
 1303 025c 6E48     		ldr	r0, .L127
 1304 025e C154     		strb	r1, [r0, r3]
 383:main.c        ****                 input_index++;
 1305              		.loc 1 383 0
 1306 0260 0133     		adds	r3, r3, #1
 1307 0262 1372     		strb	r3, [r2, #8]
 380:main.c        ****                 last_key_state = 8;
 1308              		.loc 1 380 0
 1309 0264 0824     		movs	r4, #8
 1310              	.LVL117:
 1311              	.L90:
 384:main.c        ****             }
 385:main.c        ****             if (keys[2][2] == 0 && last_key_state != 9 && input_index < 4) {
 1312              		.loc 1 385 0
 1313 0266 6C4B     		ldr	r3, .L127
 1314 0268 1B7D     		ldrb	r3, [r3, #20]
 1315 026a 002B     		cmp	r3, #0
 1316 026c 0ED1     		bne	.L91
 1317              		.loc 1 385 0 is_stmt 0 discriminator 1
 1318 026e 092C     		cmp	r4, #9
 1319 0270 0CD0     		beq	.L91
 1320              		.loc 1 385 0 discriminator 2
 1321 0272 6A4B     		ldr	r3, .L127+4
 1322 0274 1B7A     		ldrb	r3, [r3, #8]
 1323 0276 032B     		cmp	r3, #3
 1324 0278 08D8     		bhi	.L91
 1325              	.LVL118:
 386:main.c        ****                 last_key_state = 9;
 387:main.c        ****                 input_buffer[input_index] = 9;
 1326              		.loc 1 387 0 is_stmt 1
 1327 027a 684A     		ldr	r2, .L127+4
 1328 027c D018     		adds	r0, r2, r3
 1329 027e 0921     		movs	r1, #9
 1330 0280 0171     		strb	r1, [r0, #4]
 388:main.c        ****                 display_data[input_index] = 9;
 1331              		.loc 1 388 0
 1332 0282 6548     		ldr	r0, .L127
 1333 0284 C154     		strb	r1, [r0, r3]
 389:main.c        ****                 input_index++;
 1334              		.loc 1 389 0
 1335 0286 0133     		adds	r3, r3, #1
 1336 0288 1372     		strb	r3, [r2, #8]
 386:main.c        ****                 last_key_state = 9;
 1337              		.loc 1 386 0
 1338 028a 0924     		movs	r4, #9
 1339              	.LVL119:
 1340              	.L91:
 390:main.c        ****             }
 391:main.c        ****             if (keys[3][1] == 0 && last_key_state != 0 && input_index < 4) {
 1341              		.loc 1 391 0
 1342 028c 624B     		ldr	r3, .L127
 1343 028e 9B7D     		ldrb	r3, [r3, #22]
ARM GAS  C:\Users\User\AppData\Local\Temp\ccwxAVLH.s 			page 33


 1344 0290 002B     		cmp	r3, #0
 1345 0292 0ED1     		bne	.L92
 1346              		.loc 1 391 0 is_stmt 0 discriminator 1
 1347 0294 002C     		cmp	r4, #0
 1348 0296 0CD0     		beq	.L92
 1349              		.loc 1 391 0 discriminator 2
 1350 0298 604B     		ldr	r3, .L127+4
 1351 029a 1B7A     		ldrb	r3, [r3, #8]
 1352 029c 032B     		cmp	r3, #3
 1353 029e 08D8     		bhi	.L92
 1354              	.LVL120:
 392:main.c        ****                 last_key_state = 0;
 393:main.c        ****                 input_buffer[input_index] = 0;
 1355              		.loc 1 393 0 is_stmt 1
 1356 02a0 5E4A     		ldr	r2, .L127+4
 1357 02a2 D018     		adds	r0, r2, r3
 1358 02a4 0021     		movs	r1, #0
 1359 02a6 0171     		strb	r1, [r0, #4]
 394:main.c        ****                 display_data[input_index] = 0;
 1360              		.loc 1 394 0
 1361 02a8 5B48     		ldr	r0, .L127
 1362 02aa C154     		strb	r1, [r0, r3]
 395:main.c        ****                 input_index++;
 1363              		.loc 1 395 0
 1364 02ac 0133     		adds	r3, r3, #1
 1365 02ae 1372     		strb	r3, [r2, #8]
 392:main.c        ****                 last_key_state = 0;
 1366              		.loc 1 392 0
 1367 02b0 0024     		movs	r4, #0
 1368              	.LVL121:
 1369              	.L92:
 396:main.c        ****             }
 397:main.c        ****             
 398:main.c        ****             // ąÜąĮąŠą┐ą║ą░ # - ą┐ąĄčĆąĄą▓č¢čĆą║ą░ ą┐ą░čĆąŠą╗čÄ
 399:main.c        ****             if (keys[3][2] == 0 && last_key_state != 11 && input_index == 4) {
 1370              		.loc 1 399 0
 1371 02b2 594B     		ldr	r3, .L127
 1372 02b4 DB7D     		ldrb	r3, [r3, #23]
 1373 02b6 002B     		cmp	r3, #0
 1374 02b8 08D1     		bne	.L82
 1375              		.loc 1 399 0 is_stmt 0 discriminator 1
 1376 02ba 0B2C     		cmp	r4, #11
 1377 02bc 06D0     		beq	.L82
 1378              		.loc 1 399 0 discriminator 2
 1379 02be 574B     		ldr	r3, .L127+4
 1380 02c0 1B7A     		ldrb	r3, [r3, #8]
 1381 02c2 042B     		cmp	r3, #4
 1382 02c4 02D1     		bne	.L82
 1383              	.LVL122:
 400:main.c        ****                 last_key_state = 11;
 401:main.c        ****                 checkPassword();
 1384              		.loc 1 401 0 is_stmt 1
 1385 02c6 FFF7FEFF 		bl	checkPassword
 1386              	.LVL123:
 400:main.c        ****                 last_key_state = 11;
 1387              		.loc 1 400 0
 1388 02ca 0B24     		movs	r4, #11
ARM GAS  C:\Users\User\AppData\Local\Temp\ccwxAVLH.s 			page 34


 1389              	.LVL124:
 1390              	.L82:
 402:main.c        ****             }
 403:main.c        ****         }
 404:main.c        ****         
 405:main.c        ****         // ąĪą║ąĖą┤ą░ąĮąĮčÅ čüčéą░ąĮčā ą║ąĮąŠą┐ąŠą║
 406:main.c        ****         if (keys[0][0] == 1 && last_key_state == 1) last_key_state = 12;
 1391              		.loc 1 406 0
 1392 02cc 524B     		ldr	r3, .L127
 1393 02ce 1B7B     		ldrb	r3, [r3, #12]
 1394 02d0 012B     		cmp	r3, #1
 1395 02d2 02D1     		bne	.L93
 1396              		.loc 1 406 0 is_stmt 0 discriminator 1
 1397 02d4 012C     		cmp	r4, #1
 1398 02d6 00D1     		bne	.L93
 1399              		.loc 1 406 0
 1400 02d8 0B34     		adds	r4, r4, #11
 1401              	.LVL125:
 1402              	.L93:
 407:main.c        ****         if (keys[0][1] == 1 && last_key_state == 2) last_key_state = 12;
 1403              		.loc 1 407 0 is_stmt 1
 1404 02da 4F4B     		ldr	r3, .L127
 1405 02dc 5B7B     		ldrb	r3, [r3, #13]
 1406 02de 012B     		cmp	r3, #1
 1407 02e0 02D1     		bne	.L94
 1408              		.loc 1 407 0 is_stmt 0 discriminator 1
 1409 02e2 022C     		cmp	r4, #2
 1410 02e4 00D1     		bne	.L94
 1411              		.loc 1 407 0
 1412 02e6 0A34     		adds	r4, r4, #10
 1413              	.LVL126:
 1414              	.L94:
 408:main.c        ****         if (keys[0][2] == 1 && last_key_state == 3) last_key_state = 12;
 1415              		.loc 1 408 0 is_stmt 1
 1416 02e8 4B4B     		ldr	r3, .L127
 1417 02ea 9B7B     		ldrb	r3, [r3, #14]
 1418 02ec 012B     		cmp	r3, #1
 1419 02ee 02D1     		bne	.L95
 1420              		.loc 1 408 0 is_stmt 0 discriminator 1
 1421 02f0 032C     		cmp	r4, #3
 1422 02f2 00D1     		bne	.L95
 1423              		.loc 1 408 0
 1424 02f4 0934     		adds	r4, r4, #9
 1425              	.LVL127:
 1426              	.L95:
 409:main.c        ****         if (keys[1][0] == 1 && last_key_state == 4) last_key_state = 12;
 1427              		.loc 1 409 0 is_stmt 1
 1428 02f6 484B     		ldr	r3, .L127
 1429 02f8 DB7B     		ldrb	r3, [r3, #15]
 1430 02fa 012B     		cmp	r3, #1
 1431 02fc 02D1     		bne	.L96
 1432              		.loc 1 409 0 is_stmt 0 discriminator 1
 1433 02fe 042C     		cmp	r4, #4
 1434 0300 00D1     		bne	.L96
 1435              		.loc 1 409 0
 1436 0302 0834     		adds	r4, r4, #8
 1437              	.LVL128:
ARM GAS  C:\Users\User\AppData\Local\Temp\ccwxAVLH.s 			page 35


 1438              	.L96:
 410:main.c        ****         if (keys[1][1] == 1 && last_key_state == 5) last_key_state = 12;
 1439              		.loc 1 410 0 is_stmt 1
 1440 0304 444B     		ldr	r3, .L127
 1441 0306 1B7C     		ldrb	r3, [r3, #16]
 1442 0308 012B     		cmp	r3, #1
 1443 030a 02D1     		bne	.L97
 1444              		.loc 1 410 0 is_stmt 0 discriminator 1
 1445 030c 052C     		cmp	r4, #5
 1446 030e 00D1     		bne	.L97
 1447              		.loc 1 410 0
 1448 0310 0734     		adds	r4, r4, #7
 1449              	.LVL129:
 1450              	.L97:
 411:main.c        ****         if (keys[1][2] == 1 && last_key_state == 6) last_key_state = 12;
 1451              		.loc 1 411 0 is_stmt 1
 1452 0312 414B     		ldr	r3, .L127
 1453 0314 5B7C     		ldrb	r3, [r3, #17]
 1454 0316 012B     		cmp	r3, #1
 1455 0318 02D1     		bne	.L98
 1456              		.loc 1 411 0 is_stmt 0 discriminator 1
 1457 031a 062C     		cmp	r4, #6
 1458 031c 00D1     		bne	.L98
 1459              		.loc 1 411 0
 1460 031e 0634     		adds	r4, r4, #6
 1461              	.LVL130:
 1462              	.L98:
 412:main.c        ****         if (keys[2][0] == 1 && last_key_state == 7) last_key_state = 12;
 1463              		.loc 1 412 0 is_stmt 1
 1464 0320 3D4B     		ldr	r3, .L127
 1465 0322 9B7C     		ldrb	r3, [r3, #18]
 1466 0324 012B     		cmp	r3, #1
 1467 0326 02D1     		bne	.L99
 1468              		.loc 1 412 0 is_stmt 0 discriminator 1
 1469 0328 072C     		cmp	r4, #7
 1470 032a 00D1     		bne	.L99
 1471              		.loc 1 412 0
 1472 032c 0534     		adds	r4, r4, #5
 1473              	.LVL131:
 1474              	.L99:
 413:main.c        ****         if (keys[2][1] == 1 && last_key_state == 8) last_key_state = 12;
 1475              		.loc 1 413 0 is_stmt 1
 1476 032e 3A4B     		ldr	r3, .L127
 1477 0330 DB7C     		ldrb	r3, [r3, #19]
 1478 0332 012B     		cmp	r3, #1
 1479 0334 02D1     		bne	.L100
 1480              		.loc 1 413 0 is_stmt 0 discriminator 1
 1481 0336 082C     		cmp	r4, #8
 1482 0338 00D1     		bne	.L100
 1483              		.loc 1 413 0
 1484 033a 0434     		adds	r4, r4, #4
 1485              	.LVL132:
 1486              	.L100:
 414:main.c        ****         if (keys[2][2] == 1 && last_key_state == 9) last_key_state = 12;
 1487              		.loc 1 414 0 is_stmt 1
 1488 033c 364B     		ldr	r3, .L127
 1489 033e 1B7D     		ldrb	r3, [r3, #20]
ARM GAS  C:\Users\User\AppData\Local\Temp\ccwxAVLH.s 			page 36


 1490 0340 012B     		cmp	r3, #1
 1491 0342 02D1     		bne	.L101
 1492              		.loc 1 414 0 is_stmt 0 discriminator 1
 1493 0344 092C     		cmp	r4, #9
 1494 0346 00D1     		bne	.L101
 1495              		.loc 1 414 0
 1496 0348 0334     		adds	r4, r4, #3
 1497              	.LVL133:
 1498              	.L101:
 415:main.c        ****         if (keys[3][0] == 1 && last_key_state == 10) last_key_state = 12;
 1499              		.loc 1 415 0 is_stmt 1
 1500 034a 334B     		ldr	r3, .L127
 1501 034c 5B7D     		ldrb	r3, [r3, #21]
 1502 034e 012B     		cmp	r3, #1
 1503 0350 02D1     		bne	.L102
 1504              		.loc 1 415 0 is_stmt 0 discriminator 1
 1505 0352 0A2C     		cmp	r4, #10
 1506 0354 00D1     		bne	.L102
 1507              		.loc 1 415 0
 1508 0356 0234     		adds	r4, r4, #2
 1509              	.LVL134:
 1510              	.L102:
 416:main.c        ****         if (keys[3][1] == 1 && last_key_state == 0) last_key_state = 12;
 1511              		.loc 1 416 0 is_stmt 1
 1512 0358 2F4B     		ldr	r3, .L127
 1513 035a 9B7D     		ldrb	r3, [r3, #22]
 1514 035c 012B     		cmp	r3, #1
 1515 035e 02D1     		bne	.L103
 1516              		.loc 1 416 0 is_stmt 0 discriminator 1
 1517 0360 002C     		cmp	r4, #0
 1518 0362 00D1     		bne	.L103
 1519              		.loc 1 416 0
 1520 0364 0C34     		adds	r4, r4, #12
 1521              	.LVL135:
 1522              	.L103:
 417:main.c        ****         if (keys[3][2] == 1 && last_key_state == 11) last_key_state = 12;
 1523              		.loc 1 417 0 is_stmt 1
 1524 0366 2C4B     		ldr	r3, .L127
 1525 0368 DB7D     		ldrb	r3, [r3, #23]
 1526 036a 012B     		cmp	r3, #1
 1527 036c 02D1     		bne	.L104
 1528              		.loc 1 417 0 is_stmt 0 discriminator 1
 1529 036e 0B2C     		cmp	r4, #11
 1530 0370 00D1     		bne	.L104
 1531              		.loc 1 417 0
 1532 0372 0134     		adds	r4, r4, #1
 1533              	.LVL136:
 1534              	.L104:
 418:main.c        ****         
 419:main.c        ****         // ą×ąĮąŠą▓ą╗ąĄąĮąĮčÅ ą╗č¢čćąĖą╗čīąĮąĖą║č¢ą▓
 420:main.c        ****         main_counter++;
 1535              		.loc 1 420 0 is_stmt 1
 1536 0374 0135     		adds	r5, r5, #1
 1537              	.LVL137:
 421:main.c        ****         
 422:main.c        ****         // ąóą░ą╣ą╝ąĄčĆ 5 čģą▓ąĖą╗ąĖąĮ (1 čüąĄą║čāąĮą┤ą░)
 423:main.c        ****         if (timer_running && main_counter >= 100) {
ARM GAS  C:\Users\User\AppData\Local\Temp\ccwxAVLH.s 			page 37


 1538              		.loc 1 423 0
 1539 0376 294B     		ldr	r3, .L127+4
 1540 0378 9B78     		ldrb	r3, [r3, #2]
 1541 037a 002B     		cmp	r3, #0
 1542 037c 0FD0     		beq	.L105
 1543              		.loc 1 423 0 is_stmt 0 discriminator 1
 1544 037e 632D     		cmp	r5, #99
 1545 0380 0DD9     		bls	.L105
 1546              	.LVL138:
 424:main.c        ****             main_counter = 0;
 425:main.c        ****             timer_counter++;
 1547              		.loc 1 425 0 is_stmt 1
 1548 0382 264A     		ldr	r2, .L127+4
 1549 0384 D368     		ldr	r3, [r2, #12]
 1550 0386 0133     		adds	r3, r3, #1
 1551 0388 D360     		str	r3, [r2, #12]
 426:main.c        ****             if (timer_counter >= 10) {
 1552              		.loc 1 426 0
 1553 038a 092B     		cmp	r3, #9
 1554 038c 06D9     		bls	.L124
 427:main.c        ****                 timer_counter = 0;
 1555              		.loc 1 427 0
 1556 038e 0022     		movs	r2, #0
 1557 0390 224B     		ldr	r3, .L127+4
 1558 0392 DA60     		str	r2, [r3, #12]
 428:main.c        ****                 updateTimer();
 1559              		.loc 1 428 0
 1560 0394 FFF7FEFF 		bl	updateTimer
 1561              	.LVL139:
 424:main.c        ****             timer_counter++;
 1562              		.loc 1 424 0
 1563 0398 0025     		movs	r5, #0
 1564 039a 00E0     		b	.L105
 1565              	.L124:
 1566 039c 0025     		movs	r5, #0
 1567              	.LVL140:
 1568              	.L105:
 429:main.c        ****             }
 430:main.c        ****         }
 431:main.c        ****         
 432:main.c        ****         // ąŚčüčāą▓ ąŠčüčéą░ąĮąĮč¢čģ 4 čåąĖčäčĆ (500 ą╝čü)
 433:main.c        ****         if (!password_mode && !password_verified && !timer_running) {
 1569              		.loc 1 433 0
 1570 039e 1F4B     		ldr	r3, .L127+4
 1571 03a0 1B78     		ldrb	r3, [r3]
 1572 03a2 002B     		cmp	r3, #0
 1573 03a4 12D1     		bne	.L106
 1574              		.loc 1 433 0 is_stmt 0 discriminator 1
 1575 03a6 1D4B     		ldr	r3, .L127+4
 1576 03a8 5B78     		ldrb	r3, [r3, #1]
 1577 03aa 002B     		cmp	r3, #0
 1578 03ac 0ED1     		bne	.L106
 1579              		.loc 1 433 0 discriminator 2
 1580 03ae 1B4B     		ldr	r3, .L127+4
 1581 03b0 9B78     		ldrb	r3, [r3, #2]
 1582 03b2 002B     		cmp	r3, #0
 1583 03b4 0AD1     		bne	.L106
ARM GAS  C:\Users\User\AppData\Local\Temp\ccwxAVLH.s 			page 38


 434:main.c        ****             shift_counter++;
 1584              		.loc 1 434 0 is_stmt 1
 1585 03b6 194A     		ldr	r2, .L127+4
 1586 03b8 1369     		ldr	r3, [r2, #16]
 1587 03ba 0133     		adds	r3, r3, #1
 1588 03bc 1361     		str	r3, [r2, #16]
 435:main.c        ****             if (shift_counter >= 50) {
 1589              		.loc 1 435 0
 1590 03be 312B     		cmp	r3, #49
 1591 03c0 04D9     		bls	.L106
 436:main.c        ****                 shift_counter = 0;
 1592              		.loc 1 436 0
 1593 03c2 0022     		movs	r2, #0
 1594 03c4 154B     		ldr	r3, .L127+4
 1595 03c6 1A61     		str	r2, [r3, #16]
 437:main.c        ****                 shiftRightLast4();
 1596              		.loc 1 437 0
 1597 03c8 FFF7FEFF 		bl	shiftRightLast4
 1598              	.LVL141:
 1599              	.L106:
 438:main.c        ****             }
 439:main.c        ****         }
 440:main.c        ****         
 441:main.c        ****         // ą£ąĖą│ą░ąĮąĮčÅ ą┤ą╗čÅ č¢ąĮą┤ąĖą║ą░čåč¢čŚ ą┐ą░čĆąŠą╗čÄ (250 ą╝čü)
 442:main.c        ****         if (password_verified) {
 1600              		.loc 1 442 0
 1601 03cc 134B     		ldr	r3, .L127+4
 1602 03ce 5B78     		ldrb	r3, [r3, #1]
 1603 03d0 002B     		cmp	r3, #0
 1604 03d2 2ED0     		beq	.L107
 1605              	.LBB12:
 443:main.c        ****             blink_counter++;
 1606              		.loc 1 443 0
 1607 03d4 114A     		ldr	r2, .L127+4
 1608 03d6 5369     		ldr	r3, [r2, #20]
 1609 03d8 0133     		adds	r3, r3, #1
 1610 03da 5361     		str	r3, [r2, #20]
 444:main.c        ****             if (blink_counter >= 25) {
 1611              		.loc 1 444 0
 1612 03dc 182B     		cmp	r3, #24
 1613 03de 06D9     		bls	.L108
 445:main.c        ****                 blink_counter = 0;
 1614              		.loc 1 445 0
 1615 03e0 1300     		movs	r3, r2
 1616 03e2 0022     		movs	r2, #0
 1617 03e4 5A61     		str	r2, [r3, #20]
 446:main.c        ****                 blink_state = !blink_state;
 1618              		.loc 1 446 0
 1619 03e6 D97A     		ldrb	r1, [r3, #11]
 1620 03e8 4A42     		rsbs	r2, r1, #0
 1621 03ea 4A41     		adcs	r2, r2, r1
 1622 03ec DA72     		strb	r2, [r3, #11]
 1623              	.L108:
 447:main.c        ****             }
 448:main.c        ****             
 449:main.c        ****             // ąÉą▓čéąŠą╝ą░čéąĖčćąĮąĖą╣ ą▓ąĖčģč¢ą┤ čćąĄčĆąĄąĘ 5 čüąĄą║čāąĮą┤
 450:main.c        ****             static uint32_t indication_timer = 0;
ARM GAS  C:\Users\User\AppData\Local\Temp\ccwxAVLH.s 			page 39


 451:main.c        ****             indication_timer++;
 1624              		.loc 1 451 0
 1625 03ee 0B4A     		ldr	r2, .L127+4
 1626 03f0 9369     		ldr	r3, [r2, #24]
 1627 03f2 0133     		adds	r3, r3, #1
 1628 03f4 9361     		str	r3, [r2, #24]
 452:main.c        ****             if (indication_timer >= 500) {
 1629              		.loc 1 452 0
 1630 03f6 F422     		movs	r2, #244
 1631 03f8 FF32     		adds	r2, r2, #255
 1632 03fa 9342     		cmp	r3, r2
 1633 03fc 19D9     		bls	.L107
 1634              	.LBB13:
 453:main.c        ****                 indication_timer = 0;
 1635              		.loc 1 453 0
 1636 03fe 074B     		ldr	r3, .L127+4
 1637 0400 0022     		movs	r2, #0
 1638 0402 9A61     		str	r2, [r3, #24]
 454:main.c        ****                 password_verified = 0;
 1639              		.loc 1 454 0
 1640 0404 5A70     		strb	r2, [r3, #1]
 455:main.c        ****                 // ąÆč¢ą┤ąĮąŠą▓ąĖčéąĖ ą┐ąŠčćą░čéą║ąŠą▓ąĖą╣ čüčéą░ąĮ
 456:main.c        ****                 uint8_t default_data[8] = {0, 0, 0, 0, 5, 4, 0, 0};
 1641              		.loc 1 456 0
 1642 0406 0832     		adds	r2, r2, #8
 1643 0408 0549     		ldr	r1, .L127+8
 1644 040a 4031     		adds	r1, r1, #64
 1645 040c 6846     		mov	r0, sp
 1646 040e FFF7FEFF 		bl	memcpy
 1647              	.LVL142:
 1648              	.LBB14:
 457:main.c        ****                 for (int i = 0; i < 8; i++) {
 1649              		.loc 1 457 0
 1650 0412 0023     		movs	r3, #0
 1651 0414 0BE0     		b	.L109
 1652              	.L128:
 1653 0416 C046     		.align	2
 1654              	.L127:
 1655 0418 00000000 		.word	.LANCHOR2
 1656 041c 00000000 		.word	.LANCHOR1
 1657 0420 00000000 		.word	.LANCHOR0
 1658              	.LVL143:
 1659              	.L110:
 458:main.c        ****                     display_data[i] = default_data[i];
 1660              		.loc 1 458 0 discriminator 3
 1661 0424 6A46     		mov	r2, sp
 1662 0426 D15C     		ldrb	r1, [r2, r3]
 1663 0428 044A     		ldr	r2, .L129
 1664 042a D154     		strb	r1, [r2, r3]
 457:main.c        ****                 for (int i = 0; i < 8; i++) {
 1665              		.loc 1 457 0 discriminator 3
 1666 042c 0133     		adds	r3, r3, #1
 1667              	.LVL144:
 1668              	.L109:
 457:main.c        ****                 for (int i = 0; i < 8; i++) {
 1669              		.loc 1 457 0 is_stmt 0 discriminator 1
 1670 042e 072B     		cmp	r3, #7
ARM GAS  C:\Users\User\AppData\Local\Temp\ccwxAVLH.s 			page 40


 1671 0430 F8DD     		ble	.L110
 1672              	.LVL145:
 1673              	.L107:
 1674              	.LBE14:
 1675              	.LBE13:
 1676              	.LBE12:
 459:main.c        ****                 }
 460:main.c        ****             }
 461:main.c        ****         }
 462:main.c        ****         
 463:main.c        ****         CyDelay(10);
 1677              		.loc 1 463 0 is_stmt 1
 1678 0432 0A20     		movs	r0, #10
 1679 0434 FFF7FEFF 		bl	CyDelay
 1680              	.LVL146:
 464:main.c        ****     }
 1681              		.loc 1 464 0
 1682 0438 EEE5     		b	.L111
 1683              	.L130:
 1684 043a C046     		.align	2
 1685              	.L129:
 1686 043c 00000000 		.word	.LANCHOR2
 1687              		.cfi_endproc
 1688              	.LFE42:
 1689              		.size	main, .-main
 1690              		.section	.rodata
 1691              		.align	2
 1692              		.set	.LANCHOR0,. + 0
 1693              		.type	COLUMN_SetDriveMode, %object
 1694              		.size	COLUMN_SetDriveMode, 12
 1695              	COLUMN_SetDriveMode:
 1696 0000 00000000 		.word	COLUMN_0_SetDriveMode
 1697 0004 00000000 		.word	COLUMN_1_SetDriveMode
 1698 0008 00000000 		.word	COLUMN_2_SetDriveMode
 1699              		.type	password, %object
 1700              		.size	password, 4
 1701              	password:
 1702 000c 01       		.byte	1
 1703 000d 02       		.byte	2
 1704 000e 03       		.byte	3
 1705 000f 04       		.byte	4
 1706              		.type	COLUMN_Write, %object
 1707              		.size	COLUMN_Write, 12
 1708              	COLUMN_Write:
 1709 0010 00000000 		.word	COLUMN_0_Write
 1710 0014 00000000 		.word	COLUMN_1_Write
 1711 0018 00000000 		.word	COLUMN_2_Write
 1712              		.type	ROW_Read, %object
 1713              		.size	ROW_Read, 16
 1714              	ROW_Read:
 1715 001c 00000000 		.word	ROW_0_Read
 1716 0020 00000000 		.word	ROW_1_Read
 1717 0024 00000000 		.word	ROW_2_Read
 1718 0028 00000000 		.word	ROW_3_Read
 1719              		.type	SEGMENT_CODES, %object
 1720              		.size	SEGMENT_CODES, 18
 1721              	SEGMENT_CODES:
ARM GAS  C:\Users\User\AppData\Local\Temp\ccwxAVLH.s 			page 41


 1722 002c C0       		.byte	-64
 1723 002d F9       		.byte	-7
 1724 002e A4       		.byte	-92
 1725 002f B0       		.byte	-80
 1726 0030 99       		.byte	-103
 1727 0031 92       		.byte	-110
 1728 0032 82       		.byte	-126
 1729 0033 F8       		.byte	-8
 1730 0034 80       		.byte	-128
 1731 0035 90       		.byte	-112
 1732 0036 88       		.byte	-120
 1733 0037 83       		.byte	-125
 1734 0038 C6       		.byte	-58
 1735 0039 A1       		.byte	-95
 1736 003a 86       		.byte	-122
 1737 003b 8E       		.byte	-114
 1738 003c 00       		.byte	0
 1739 003d FF       		.byte	-1
 1740 003e 0000     		.space	2
 1741              	.LC0:
 1742 0040 00       		.byte	0
 1743 0041 00       		.byte	0
 1744 0042 00       		.byte	0
 1745 0043 00       		.byte	0
 1746 0044 05       		.byte	5
 1747 0045 04       		.byte	4
 1748 0046 00       		.byte	0
 1749 0047 00       		.byte	0
 1750              		.data
 1751              		.align	2
 1752              		.set	.LANCHOR2,. + 0
 1753              		.type	display_data, %object
 1754              		.size	display_data, 8
 1755              	display_data:
 1756 0000 00       		.byte	0
 1757 0001 00       		.byte	0
 1758 0002 00       		.byte	0
 1759 0003 00       		.byte	0
 1760 0004 05       		.byte	5
 1761 0005 04       		.byte	4
 1762 0006 00       		.byte	0
 1763 0007 00       		.byte	0
 1764              		.type	timer_minutes, %object
 1765              		.size	timer_minutes, 1
 1766              	timer_minutes:
 1767 0008 05       		.byte	5
 1768 0009 000000   		.space	3
 1769              		.type	keys, %object
 1770              		.size	keys, 12
 1771              	keys:
 1772 000c 01       		.byte	1
 1773 000d 02       		.byte	2
 1774 000e 03       		.byte	3
 1775 000f 04       		.byte	4
 1776 0010 05       		.byte	5
 1777 0011 06       		.byte	6
 1778 0012 07       		.byte	7
ARM GAS  C:\Users\User\AppData\Local\Temp\ccwxAVLH.s 			page 42


 1779 0013 08       		.byte	8
 1780 0014 09       		.byte	9
 1781 0015 0A       		.byte	10
 1782 0016 00       		.byte	0
 1783 0017 0B       		.byte	11
 1784              		.bss
 1785              		.align	2
 1786              		.set	.LANCHOR1,. + 0
 1787              		.type	password_mode, %object
 1788              		.size	password_mode, 1
 1789              	password_mode:
 1790 0000 00       		.space	1
 1791              		.type	password_verified, %object
 1792              		.size	password_verified, 1
 1793              	password_verified:
 1794 0001 00       		.space	1
 1795              		.type	timer_running, %object
 1796              		.size	timer_running, 1
 1797              	timer_running:
 1798 0002 00       		.space	1
 1799 0003 00       		.space	1
 1800              		.type	input_buffer, %object
 1801              		.size	input_buffer, 4
 1802              	input_buffer:
 1803 0004 00000000 		.space	4
 1804              		.type	input_index, %object
 1805              		.size	input_index, 1
 1806              	input_index:
 1807 0008 00       		.space	1
 1808              		.type	timer_seconds, %object
 1809              		.size	timer_seconds, 1
 1810              	timer_seconds:
 1811 0009 00       		.space	1
 1812              		.type	current_digit, %object
 1813              		.size	current_digit, 1
 1814              	current_digit:
 1815 000a 00       		.space	1
 1816              		.type	blink_state, %object
 1817              		.size	blink_state, 1
 1818              	blink_state:
 1819 000b 00       		.space	1
 1820              		.type	timer_counter, %object
 1821              		.size	timer_counter, 4
 1822              	timer_counter:
 1823 000c 00000000 		.space	4
 1824              		.type	shift_counter, %object
 1825              		.size	shift_counter, 4
 1826              	shift_counter:
 1827 0010 00000000 		.space	4
 1828              		.type	blink_counter, %object
 1829              		.size	blink_counter, 4
 1830              	blink_counter:
 1831 0014 00000000 		.space	4
 1832              		.type	indication_timer.5471, %object
 1833              		.size	indication_timer.5471, 4
 1834              	indication_timer.5471:
 1835 0018 00000000 		.space	4
ARM GAS  C:\Users\User\AppData\Local\Temp\ccwxAVLH.s 			page 43


 1836              		.text
 1837              	.Letext0:
 1838              		.file 2 "c:\\program files (x86)\\cypress\\psoc creator\\4.4\\psoc creator\\import\\gnu\\arm\\5.4.
 1839              		.file 3 "c:\\program files (x86)\\cypress\\psoc creator\\4.4\\psoc creator\\import\\gnu\\arm\\5.4.
 1840              		.file 4 "Generated_Source\\PSoC4/CyLib.h"
 1841              		.file 5 "Generated_Source\\PSoC4/Pin_DO.h"
 1842              		.file 6 "Generated_Source\\PSoC4/Pin_CLK.h"
 1843              		.file 7 "Generated_Source\\PSoC4/Pin_Latch.h"
 1844              		.file 8 "Generated_Source\\PSoC4/Timer.h"
 1845              		.file 9 "Generated_Source\\PSoC4/Timer_Int.h"
 1846              		.section	.debug_info,"",%progbits
 1847              	.Ldebug_info0:
 1848 0000 C5070000 		.4byte	0x7c5
 1849 0004 0400     		.2byte	0x4
 1850 0006 00000000 		.4byte	.Ldebug_abbrev0
 1851 000a 04       		.byte	0x4
 1852 000b 01       		.uleb128 0x1
 1853 000c 38000000 		.4byte	.LASF61
 1854 0010 0C       		.byte	0xc
 1855 0011 4A020000 		.4byte	.LASF62
 1856 0015 51020000 		.4byte	.LASF63
 1857 0019 00000000 		.4byte	.Ldebug_ranges0+0
 1858 001d 00000000 		.4byte	0
 1859 0021 00000000 		.4byte	.Ldebug_line0
 1860 0025 02       		.uleb128 0x2
 1861 0026 01       		.byte	0x1
 1862 0027 06       		.byte	0x6
 1863 0028 F8000000 		.4byte	.LASF0
 1864 002c 03       		.uleb128 0x3
 1865 002d 19000000 		.4byte	.LASF5
 1866 0031 02       		.byte	0x2
 1867 0032 1D       		.byte	0x1d
 1868 0033 37000000 		.4byte	0x37
 1869 0037 02       		.uleb128 0x2
 1870 0038 01       		.byte	0x1
 1871 0039 08       		.byte	0x8
 1872 003a FD020000 		.4byte	.LASF1
 1873 003e 02       		.uleb128 0x2
 1874 003f 02       		.byte	0x2
 1875 0040 05       		.byte	0x5
 1876 0041 0B030000 		.4byte	.LASF2
 1877 0045 02       		.uleb128 0x2
 1878 0046 02       		.byte	0x2
 1879 0047 07       		.byte	0x7
 1880 0048 2A020000 		.4byte	.LASF3
 1881 004c 02       		.uleb128 0x2
 1882 004d 04       		.byte	0x4
 1883 004e 05       		.byte	0x5
 1884 004f 45010000 		.4byte	.LASF4
 1885 0053 03       		.uleb128 0x3
 1886 0054 7A010000 		.4byte	.LASF6
 1887 0058 02       		.byte	0x2
 1888 0059 41       		.byte	0x41
 1889 005a 5E000000 		.4byte	0x5e
 1890 005e 02       		.uleb128 0x2
 1891 005f 04       		.byte	0x4
 1892 0060 07       		.byte	0x7
ARM GAS  C:\Users\User\AppData\Local\Temp\ccwxAVLH.s 			page 44


 1893 0061 DE010000 		.4byte	.LASF7
 1894 0065 02       		.uleb128 0x2
 1895 0066 08       		.byte	0x8
 1896 0067 05       		.byte	0x5
 1897 0068 EA000000 		.4byte	.LASF8
 1898 006c 02       		.uleb128 0x2
 1899 006d 08       		.byte	0x8
 1900 006e 07       		.byte	0x7
 1901 006f C6000000 		.4byte	.LASF9
 1902 0073 04       		.uleb128 0x4
 1903 0074 04       		.byte	0x4
 1904 0075 05       		.byte	0x5
 1905 0076 696E7400 		.ascii	"int\000"
 1906 007a 02       		.uleb128 0x2
 1907 007b 04       		.byte	0x4
 1908 007c 07       		.byte	0x7
 1909 007d AF010000 		.4byte	.LASF10
 1910 0081 03       		.uleb128 0x3
 1911 0082 CF030000 		.4byte	.LASF11
 1912 0086 03       		.byte	0x3
 1913 0087 18       		.byte	0x18
 1914 0088 2C000000 		.4byte	0x2c
 1915 008c 03       		.uleb128 0x3
 1916 008d 15030000 		.4byte	.LASF12
 1917 0091 03       		.byte	0x3
 1918 0092 30       		.byte	0x30
 1919 0093 53000000 		.4byte	0x53
 1920 0097 02       		.uleb128 0x2
 1921 0098 04       		.byte	0x4
 1922 0099 04       		.byte	0x4
 1923 009a D8020000 		.4byte	.LASF13
 1924 009e 02       		.uleb128 0x2
 1925 009f 08       		.byte	0x8
 1926 00a0 04       		.byte	0x4
 1927 00a1 65010000 		.4byte	.LASF14
 1928 00a5 02       		.uleb128 0x2
 1929 00a6 01       		.byte	0x1
 1930 00a7 08       		.byte	0x8
 1931 00a8 42030000 		.4byte	.LASF15
 1932 00ac 02       		.uleb128 0x2
 1933 00ad 08       		.byte	0x8
 1934 00ae 04       		.byte	0x4
 1935 00af A8020000 		.4byte	.LASF16
 1936 00b3 02       		.uleb128 0x2
 1937 00b4 04       		.byte	0x4
 1938 00b5 07       		.byte	0x7
 1939 00b6 9F020000 		.4byte	.LASF17
 1940 00ba 05       		.uleb128 0x5
 1941 00bb C4030000 		.4byte	.LASF18
 1942 00bf 01       		.byte	0x1
 1943 00c0 98       		.byte	0x98
 1944 00c1 00000000 		.4byte	.LFB35
 1945 00c5 1C000000 		.4byte	.LFE35-.LFB35
 1946 00c9 01       		.uleb128 0x1
 1947 00ca 9C       		.byte	0x9c
 1948 00cb FE000000 		.4byte	0xfe
 1949 00cf 06       		.uleb128 0x6
ARM GAS  C:\Users\User\AppData\Local\Temp\ccwxAVLH.s 			page 45


 1950 00d0 02000000 		.4byte	.LBB2
 1951 00d4 14000000 		.4byte	.LBE2-.LBB2
 1952 00d8 07       		.uleb128 0x7
 1953 00d9 6900     		.ascii	"i\000"
 1954 00db 01       		.byte	0x1
 1955 00dc 9A       		.byte	0x9a
 1956 00dd 73000000 		.4byte	0x73
 1957 00e1 00000000 		.4byte	.LLST0
 1958 00e5 08       		.uleb128 0x8
 1959 00e6 10000000 		.4byte	.LVL2
 1960 00ea 0B       		.uleb128 0xb
 1961 00eb 74       		.byte	0x74
 1962 00ec 00       		.sleb128 0
 1963 00ed 32       		.byte	0x32
 1964 00ee 24       		.byte	0x24
 1965 00ef 03       		.byte	0x3
 1966 00f0 00000000 		.4byte	.LANCHOR0
 1967 00f4 22       		.byte	0x22
 1968 00f5 06       		.byte	0x6
 1969 00f6 09       		.uleb128 0x9
 1970 00f7 01       		.uleb128 0x1
 1971 00f8 50       		.byte	0x50
 1972 00f9 01       		.uleb128 0x1
 1973 00fa 31       		.byte	0x31
 1974 00fb 00       		.byte	0
 1975 00fc 00       		.byte	0
 1976 00fd 00       		.byte	0
 1977 00fe 05       		.uleb128 0x5
 1978 00ff 55030000 		.4byte	.LASF19
 1979 0103 01       		.byte	0x1
 1980 0104 B3       		.byte	0xb3
 1981 0105 00000000 		.4byte	.LFB37
 1982 0109 40000000 		.4byte	.LFE37-.LFB37
 1983 010d 01       		.uleb128 0x1
 1984 010e 9C       		.byte	0x9c
 1985 010f 3A010000 		.4byte	0x13a
 1986 0113 0A       		.uleb128 0xa
 1987 0114 9C010000 		.4byte	.LASF20
 1988 0118 01       		.byte	0x1
 1989 0119 B7       		.byte	0xb7
 1990 011a 81000000 		.4byte	0x81
 1991 011e 1F000000 		.4byte	.LLST1
 1992 0122 06       		.uleb128 0x6
 1993 0123 1E000000 		.4byte	.LBB3
 1994 0127 12000000 		.4byte	.LBE3-.LBB3
 1995 012b 07       		.uleb128 0x7
 1996 012c 6900     		.ascii	"i\000"
 1997 012e 01       		.byte	0x1
 1998 012f B8       		.byte	0xb8
 1999 0130 73000000 		.4byte	0x73
 2000 0134 32000000 		.4byte	.LLST2
 2001 0138 00       		.byte	0
 2002 0139 00       		.byte	0
 2003 013a 05       		.uleb128 0x5
 2004 013b E4030000 		.4byte	.LASF21
 2005 013f 01       		.byte	0x1
 2006 0140 BF       		.byte	0xbf
ARM GAS  C:\Users\User\AppData\Local\Temp\ccwxAVLH.s 			page 46


 2007 0141 00000000 		.4byte	.LFB38
 2008 0145 4C000000 		.4byte	.LFE38-.LFB38
 2009 0149 01       		.uleb128 0x1
 2010 014a 9C       		.byte	0x9c
 2011 014b 82010000 		.4byte	0x182
 2012 014f 0B       		.uleb128 0xb
 2013 0150 06000000 		.4byte	.LBB4
 2014 0154 26000000 		.4byte	.LBE4-.LBB4
 2015 0158 6A010000 		.4byte	0x16a
 2016 015c 07       		.uleb128 0x7
 2017 015d 6900     		.ascii	"i\000"
 2018 015f 01       		.byte	0x1
 2019 0160 C3       		.byte	0xc3
 2020 0161 73000000 		.4byte	0x73
 2021 0165 67000000 		.4byte	.LLST3
 2022 0169 00       		.byte	0
 2023 016a 06       		.uleb128 0x6
 2024 016b 2C000000 		.4byte	.LBB5
 2025 016f 0E000000 		.4byte	.LBE5-.LBB5
 2026 0173 07       		.uleb128 0x7
 2027 0174 6900     		.ascii	"i\000"
 2028 0176 01       		.byte	0x1
 2029 0177 CB       		.byte	0xcb
 2030 0178 73000000 		.4byte	0x73
 2031 017c 91000000 		.4byte	.LLST4
 2032 0180 00       		.byte	0
 2033 0181 00       		.byte	0
 2034 0182 0C       		.uleb128 0xc
 2035 0183 0D000000 		.4byte	.LASF64
 2036 0187 01       		.byte	0x1
 2037 0188 D3       		.byte	0xd3
 2038 0189 00000000 		.4byte	.LFB39
 2039 018d 70000000 		.4byte	.LFE39-.LFB39
 2040 0191 01       		.uleb128 0x1
 2041 0192 9C       		.byte	0x9c
 2042 0193 05       		.uleb128 0x5
 2043 0194 0C020000 		.4byte	.LASF22
 2044 0198 01       		.byte	0x1
 2045 0199 EA       		.byte	0xea
 2046 019a 00000000 		.4byte	.LFB40
 2047 019e 20000000 		.4byte	.LFE40-.LFB40
 2048 01a2 01       		.uleb128 0x1
 2049 01a3 9C       		.byte	0x9c
 2050 01a4 B2010000 		.4byte	0x1b2
 2051 01a8 0D       		.uleb128 0xd
 2052 01a9 16000000 		.4byte	.LVL23
 2053 01ad 82010000 		.4byte	0x182
 2054 01b1 00       		.byte	0
 2055 01b2 05       		.uleb128 0x5
 2056 01b3 C5020000 		.4byte	.LASF23
 2057 01b7 01       		.byte	0x1
 2058 01b8 F3       		.byte	0xf3
 2059 01b9 00000000 		.4byte	.LFB41
 2060 01bd 4C000000 		.4byte	.LFE41-.LFB41
 2061 01c1 01       		.uleb128 0x1
 2062 01c2 9C       		.byte	0x9c
 2063 01c3 14020000 		.4byte	0x214
ARM GAS  C:\Users\User\AppData\Local\Temp\ccwxAVLH.s 			page 47


 2064 01c7 0B       		.uleb128 0xb
 2065 01c8 0A000000 		.4byte	.LBB6
 2066 01cc 12000000 		.4byte	.LBE6-.LBB6
 2067 01d0 E2010000 		.4byte	0x1e2
 2068 01d4 07       		.uleb128 0x7
 2069 01d5 6900     		.ascii	"i\000"
 2070 01d7 01       		.byte	0x1
 2071 01d8 F9       		.byte	0xf9
 2072 01d9 73000000 		.4byte	0x73
 2073 01dd A4000000 		.4byte	.LLST5
 2074 01e1 00       		.byte	0
 2075 01e2 0B       		.uleb128 0xb
 2076 01e3 22000000 		.4byte	.LBB7
 2077 01e7 14000000 		.4byte	.LBE7-.LBB7
 2078 01eb FD010000 		.4byte	0x1fd
 2079 01ef 07       		.uleb128 0x7
 2080 01f0 6900     		.ascii	"i\000"
 2081 01f2 01       		.byte	0x1
 2082 01f3 FF       		.byte	0xff
 2083 01f4 73000000 		.4byte	0x73
 2084 01f8 C3000000 		.4byte	.LLST6
 2085 01fc 00       		.byte	0
 2086 01fd 06       		.uleb128 0x6
 2087 01fe 36000000 		.4byte	.LBB8
 2088 0202 0C000000 		.4byte	.LBE8-.LBB8
 2089 0206 0E       		.uleb128 0xe
 2090 0207 6900     		.ascii	"i\000"
 2091 0209 01       		.byte	0x1
 2092 020a 0201     		.2byte	0x102
 2093 020c 73000000 		.4byte	0x73
 2094 0210 01       		.uleb128 0x1
 2095 0211 53       		.byte	0x53
 2096 0212 00       		.byte	0
 2097 0213 00       		.byte	0
 2098 0214 05       		.uleb128 0x5
 2099 0215 8F030000 		.4byte	.LASF24
 2100 0219 01       		.byte	0x1
 2101 021a A0       		.byte	0xa0
 2102 021b 00000000 		.4byte	.LFB36
 2103 021f 58000000 		.4byte	.LFE36-.LFB36
 2104 0223 01       		.uleb128 0x1
 2105 0224 9C       		.byte	0x9c
 2106 0225 C0020000 		.4byte	0x2c0
 2107 0229 06       		.uleb128 0x6
 2108 022a 02000000 		.4byte	.LBB9
 2109 022e 4C000000 		.4byte	.LBE9-.LBB9
 2110 0232 07       		.uleb128 0x7
 2111 0233 636F6C00 		.ascii	"col\000"
 2112 0237 01       		.byte	0x1
 2113 0238 A2       		.byte	0xa2
 2114 0239 73000000 		.4byte	0x73
 2115 023d E2000000 		.4byte	.LLST7
 2116 0241 0B       		.uleb128 0xb
 2117 0242 1E000000 		.4byte	.LBB10
 2118 0246 20000000 		.4byte	.LBE10-.LBB10
 2119 024a 6E020000 		.4byte	0x26e
 2120 024e 07       		.uleb128 0x7
ARM GAS  C:\Users\User\AppData\Local\Temp\ccwxAVLH.s 			page 48


 2121 024f 726F7700 		.ascii	"row\000"
 2122 0253 01       		.byte	0x1
 2123 0254 A9       		.byte	0xa9
 2124 0255 73000000 		.4byte	0x73
 2125 0259 01010000 		.4byte	.LLST8
 2126 025d 0F       		.uleb128 0xf
 2127 025e 2C000000 		.4byte	.LVL40
 2128 0262 0A       		.uleb128 0xa
 2129 0263 74       		.byte	0x74
 2130 0264 00       		.sleb128 0
 2131 0265 32       		.byte	0x32
 2132 0266 24       		.byte	0x24
 2133 0267 76       		.byte	0x76
 2134 0268 00       		.sleb128 0
 2135 0269 22       		.byte	0x22
 2136 026a 23       		.byte	0x23
 2137 026b 1C       		.uleb128 0x1c
 2138 026c 06       		.byte	0x6
 2139 026d 00       		.byte	0
 2140 026e 10       		.uleb128 0x10
 2141 026f 10000000 		.4byte	.LVL36
 2142 0273 06       		.uleb128 0x6
 2143 0274 76       		.byte	0x76
 2144 0275 00       		.sleb128 0
 2145 0276 74       		.byte	0x74
 2146 0277 00       		.sleb128 0
 2147 0278 22       		.byte	0x22
 2148 0279 06       		.byte	0x6
 2149 027a 84020000 		.4byte	0x284
 2150 027e 09       		.uleb128 0x9
 2151 027f 01       		.uleb128 0x1
 2152 0280 50       		.byte	0x50
 2153 0281 01       		.uleb128 0x1
 2154 0282 36       		.byte	0x36
 2155 0283 00       		.byte	0
 2156 0284 10       		.uleb128 0x10
 2157 0285 18000000 		.4byte	.LVL37
 2158 0289 03       		.uleb128 0x3
 2159 028a 74       		.byte	0x74
 2160 028b 10       		.sleb128 16
 2161 028c 06       		.byte	0x6
 2162 028d 97020000 		.4byte	0x297
 2163 0291 09       		.uleb128 0x9
 2164 0292 01       		.uleb128 0x1
 2165 0293 50       		.byte	0x50
 2166 0294 01       		.uleb128 0x1
 2167 0295 30       		.byte	0x30
 2168 0296 00       		.byte	0
 2169 0297 11       		.uleb128 0x11
 2170 0298 1E000000 		.4byte	.LVL38
 2171 029c 72070000 		.4byte	0x772
 2172 02a0 AA020000 		.4byte	0x2aa
 2173 02a4 09       		.uleb128 0x9
 2174 02a5 01       		.uleb128 0x1
 2175 02a6 50       		.byte	0x50
 2176 02a7 01       		.uleb128 0x1
 2177 02a8 3A       		.byte	0x3a
ARM GAS  C:\Users\User\AppData\Local\Temp\ccwxAVLH.s 			page 49


 2178 02a9 00       		.byte	0
 2179 02aa 08       		.uleb128 0x8
 2180 02ab 48000000 		.4byte	.LVL42
 2181 02af 08       		.uleb128 0x8
 2182 02b0 75       		.byte	0x75
 2183 02b1 00       		.sleb128 0
 2184 02b2 32       		.byte	0x32
 2185 02b3 24       		.byte	0x24
 2186 02b4 76       		.byte	0x76
 2187 02b5 00       		.sleb128 0
 2188 02b6 22       		.byte	0x22
 2189 02b7 06       		.byte	0x6
 2190 02b8 09       		.uleb128 0x9
 2191 02b9 01       		.uleb128 0x1
 2192 02ba 50       		.byte	0x50
 2193 02bb 01       		.uleb128 0x1
 2194 02bc 31       		.byte	0x31
 2195 02bd 00       		.byte	0
 2196 02be 00       		.byte	0
 2197 02bf 00       		.byte	0
 2198 02c0 05       		.uleb128 0x5
 2199 02c1 93020000 		.4byte	.LASF25
 2200 02c5 01       		.byte	0x1
 2201 02c6 73       		.byte	0x73
 2202 02c7 00000000 		.4byte	.LFB33
 2203 02cb 40000000 		.4byte	.LFE33-.LFB33
 2204 02cf 01       		.uleb128 0x1
 2205 02d0 9C       		.byte	0x9c
 2206 02d1 6A030000 		.4byte	0x36a
 2207 02d5 12       		.uleb128 0x12
 2208 02d6 17020000 		.4byte	.LASF27
 2209 02da 01       		.byte	0x1
 2210 02db 73       		.byte	0x73
 2211 02dc 81000000 		.4byte	0x81
 2212 02e0 20010000 		.4byte	.LLST9
 2213 02e4 06       		.uleb128 0x6
 2214 02e5 04000000 		.4byte	.LBB11
 2215 02e9 3A000000 		.4byte	.LBE11-.LBB11
 2216 02ed 07       		.uleb128 0x7
 2217 02ee 6900     		.ascii	"i\000"
 2218 02f0 01       		.byte	0x1
 2219 02f1 75       		.byte	0x75
 2220 02f2 81000000 		.4byte	0x81
 2221 02f6 41010000 		.4byte	.LLST10
 2222 02fa 11       		.uleb128 0x11
 2223 02fb 16000000 		.4byte	.LVL48
 2224 02ff 7D070000 		.4byte	0x77d
 2225 0303 0D030000 		.4byte	0x30d
 2226 0307 09       		.uleb128 0x9
 2227 0308 01       		.uleb128 0x1
 2228 0309 50       		.byte	0x50
 2229 030a 01       		.uleb128 0x1
 2230 030b 31       		.byte	0x31
 2231 030c 00       		.byte	0
 2232 030d 11       		.uleb128 0x11
 2233 030e 1E000000 		.4byte	.LVL49
 2234 0312 7D070000 		.4byte	0x77d
ARM GAS  C:\Users\User\AppData\Local\Temp\ccwxAVLH.s 			page 50


 2235 0316 20030000 		.4byte	0x320
 2236 031a 09       		.uleb128 0x9
 2237 031b 01       		.uleb128 0x1
 2238 031c 50       		.byte	0x50
 2239 031d 01       		.uleb128 0x1
 2240 031e 30       		.byte	0x30
 2241 031f 00       		.byte	0
 2242 0320 11       		.uleb128 0x11
 2243 0321 24000000 		.4byte	.LVL50
 2244 0325 88070000 		.4byte	0x788
 2245 0329 33030000 		.4byte	0x333
 2246 032d 09       		.uleb128 0x9
 2247 032e 01       		.uleb128 0x1
 2248 032f 50       		.byte	0x50
 2249 0330 01       		.uleb128 0x1
 2250 0331 31       		.byte	0x31
 2251 0332 00       		.byte	0
 2252 0333 11       		.uleb128 0x11
 2253 0334 2A000000 		.4byte	.LVL51
 2254 0338 72070000 		.4byte	0x772
 2255 033c 46030000 		.4byte	0x346
 2256 0340 09       		.uleb128 0x9
 2257 0341 01       		.uleb128 0x1
 2258 0342 50       		.byte	0x50
 2259 0343 01       		.uleb128 0x1
 2260 0344 31       		.byte	0x31
 2261 0345 00       		.byte	0
 2262 0346 11       		.uleb128 0x11
 2263 0347 30000000 		.4byte	.LVL52
 2264 034b 88070000 		.4byte	0x788
 2265 034f 59030000 		.4byte	0x359
 2266 0353 09       		.uleb128 0x9
 2267 0354 01       		.uleb128 0x1
 2268 0355 50       		.byte	0x50
 2269 0356 01       		.uleb128 0x1
 2270 0357 30       		.byte	0x30
 2271 0358 00       		.byte	0
 2272 0359 13       		.uleb128 0x13
 2273 035a 36000000 		.4byte	.LVL53
 2274 035e 72070000 		.4byte	0x772
 2275 0362 09       		.uleb128 0x9
 2276 0363 01       		.uleb128 0x1
 2277 0364 50       		.byte	0x50
 2278 0365 01       		.uleb128 0x1
 2279 0366 31       		.byte	0x31
 2280 0367 00       		.byte	0
 2281 0368 00       		.byte	0
 2282 0369 00       		.byte	0
 2283 036a 05       		.uleb128 0x5
 2284 036b DD000000 		.4byte	.LASF26
 2285 036f 01       		.byte	0x1
 2286 0370 83       		.byte	0x83
 2287 0371 00000000 		.4byte	.LFB34
 2288 0375 48000000 		.4byte	.LFE34-.LFB34
 2289 0379 01       		.uleb128 0x1
 2290 037a 9C       		.byte	0x9c
 2291 037b 28040000 		.4byte	0x428
ARM GAS  C:\Users\User\AppData\Local\Temp\ccwxAVLH.s 			page 51


 2292 037f 12       		.uleb128 0x12
 2293 0380 D5010000 		.4byte	.LASF28
 2294 0384 01       		.byte	0x1
 2295 0385 83       		.byte	0x83
 2296 0386 81000000 		.4byte	0x81
 2297 038a 6B010000 		.4byte	.LLST11
 2298 038e 12       		.uleb128 0x12
 2299 038f 04010000 		.4byte	.LASF29
 2300 0393 01       		.byte	0x1
 2301 0394 83       		.byte	0x83
 2302 0395 81000000 		.4byte	0x81
 2303 0399 8C010000 		.4byte	.LLST12
 2304 039d 0A       		.uleb128 0xa
 2305 039e A1010000 		.4byte	.LASF30
 2306 03a2 01       		.byte	0x1
 2307 03a3 86       		.byte	0x86
 2308 03a4 81000000 		.4byte	0x81
 2309 03a8 AD010000 		.4byte	.LLST13
 2310 03ac 0D       		.uleb128 0xd
 2311 03ad 12000000 		.4byte	.LVL60
 2312 03b1 C0020000 		.4byte	0x2c0
 2313 03b5 11       		.uleb128 0x11
 2314 03b6 22000000 		.4byte	.LVL61
 2315 03ba C0020000 		.4byte	0x2c0
 2316 03be CB030000 		.4byte	0x3cb
 2317 03c2 09       		.uleb128 0x9
 2318 03c3 01       		.uleb128 0x1
 2319 03c4 50       		.byte	0x50
 2320 03c5 04       		.uleb128 0x4
 2321 03c6 74       		.byte	0x74
 2322 03c7 2C       		.sleb128 44
 2323 03c8 94       		.byte	0x94
 2324 03c9 01       		.byte	0x1
 2325 03ca 00       		.byte	0
 2326 03cb 11       		.uleb128 0x11
 2327 03cc 2A000000 		.4byte	.LVL62
 2328 03d0 C0020000 		.4byte	0x2c0
 2329 03d4 DF030000 		.4byte	0x3df
 2330 03d8 09       		.uleb128 0x9
 2331 03d9 01       		.uleb128 0x1
 2332 03da 50       		.byte	0x50
 2333 03db 02       		.uleb128 0x2
 2334 03dc 09       		.byte	0x9
 2335 03dd FF       		.byte	0xff
 2336 03de 00       		.byte	0
 2337 03df 11       		.uleb128 0x11
 2338 03e0 30000000 		.4byte	.LVL63
 2339 03e4 93070000 		.4byte	0x793
 2340 03e8 F2030000 		.4byte	0x3f2
 2341 03ec 09       		.uleb128 0x9
 2342 03ed 01       		.uleb128 0x1
 2343 03ee 50       		.byte	0x50
 2344 03ef 01       		.uleb128 0x1
 2345 03f0 31       		.byte	0x31
 2346 03f1 00       		.byte	0
 2347 03f2 11       		.uleb128 0x11
 2348 03f3 36000000 		.4byte	.LVL64
ARM GAS  C:\Users\User\AppData\Local\Temp\ccwxAVLH.s 			page 52


 2349 03f7 72070000 		.4byte	0x772
 2350 03fb 05040000 		.4byte	0x405
 2351 03ff 09       		.uleb128 0x9
 2352 0400 01       		.uleb128 0x1
 2353 0401 50       		.byte	0x50
 2354 0402 01       		.uleb128 0x1
 2355 0403 31       		.byte	0x31
 2356 0404 00       		.byte	0
 2357 0405 11       		.uleb128 0x11
 2358 0406 3C000000 		.4byte	.LVL65
 2359 040a 93070000 		.4byte	0x793
 2360 040e 18040000 		.4byte	0x418
 2361 0412 09       		.uleb128 0x9
 2362 0413 01       		.uleb128 0x1
 2363 0414 50       		.byte	0x50
 2364 0415 01       		.uleb128 0x1
 2365 0416 30       		.byte	0x30
 2366 0417 00       		.byte	0
 2367 0418 13       		.uleb128 0x13
 2368 0419 42000000 		.4byte	.LVL66
 2369 041d 72070000 		.4byte	0x772
 2370 0421 09       		.uleb128 0x9
 2371 0422 01       		.uleb128 0x1
 2372 0423 50       		.byte	0x50
 2373 0424 01       		.uleb128 0x1
 2374 0425 31       		.byte	0x31
 2375 0426 00       		.byte	0
 2376 0427 00       		.byte	0
 2377 0428 14       		.uleb128 0x14
 2378 0429 1E030000 		.4byte	.LASF65
 2379 042d 01       		.byte	0x1
 2380 042e 5B       		.byte	0x5b
 2381 042f 00000000 		.4byte	.LFB32
 2382 0433 80000000 		.4byte	.LFE32-.LFB32
 2383 0437 01       		.uleb128 0x1
 2384 0438 9C       		.byte	0x9c
 2385 0439 72040000 		.4byte	0x472
 2386 043d 0D       		.uleb128 0xd
 2387 043e 16000000 		.4byte	.LVL67
 2388 0442 6A030000 		.4byte	0x36a
 2389 0446 0D       		.uleb128 0xd
 2390 0447 30000000 		.4byte	.LVL68
 2391 044b 6A030000 		.4byte	0x36a
 2392 044f 11       		.uleb128 0x11
 2393 0450 5A000000 		.4byte	.LVL69
 2394 0454 6A030000 		.4byte	0x36a
 2395 0458 62040000 		.4byte	0x462
 2396 045c 09       		.uleb128 0x9
 2397 045d 01       		.uleb128 0x1
 2398 045e 51       		.byte	0x51
 2399 045f 01       		.uleb128 0x1
 2400 0460 40       		.byte	0x40
 2401 0461 00       		.byte	0
 2402 0462 13       		.uleb128 0x13
 2403 0463 62000000 		.4byte	.LVL70
 2404 0467 6A030000 		.4byte	0x36a
 2405 046b 09       		.uleb128 0x9
ARM GAS  C:\Users\User\AppData\Local\Temp\ccwxAVLH.s 			page 53


 2406 046c 01       		.uleb128 0x1
 2407 046d 51       		.byte	0x51
 2408 046e 01       		.uleb128 0x1
 2409 046f 41       		.byte	0x41
 2410 0470 00       		.byte	0
 2411 0471 00       		.byte	0
 2412 0472 15       		.uleb128 0x15
 2413 0473 F2030000 		.4byte	.LASF66
 2414 0477 01       		.byte	0x1
 2415 0478 0701     		.2byte	0x107
 2416 047a 73000000 		.4byte	0x73
 2417 047e 00000000 		.4byte	.LFB42
 2418 0482 40040000 		.4byte	.LFE42-.LFB42
 2419 0486 01       		.uleb128 0x1
 2420 0487 9C       		.byte	0x9c
 2421 0488 8E050000 		.4byte	0x58e
 2422 048c 16       		.uleb128 0x16
 2423 048d EE020000 		.4byte	.LASF31
 2424 0491 01       		.byte	0x1
 2425 0492 1101     		.2byte	0x111
 2426 0494 81000000 		.4byte	0x81
 2427 0498 C0010000 		.4byte	.LLST14
 2428 049c 16       		.uleb128 0x16
 2429 049d 38010000 		.4byte	.LASF32
 2430 04a1 01       		.byte	0x1
 2431 04a2 1201     		.2byte	0x112
 2432 04a4 8C000000 		.4byte	0x8c
 2433 04a8 F0030000 		.4byte	.LLST15
 2434 04ac 0B       		.uleb128 0xb
 2435 04ad D4030000 		.4byte	.LBB12
 2436 04b1 5E000000 		.4byte	.LBE12-.LBB12
 2437 04b5 1F050000 		.4byte	0x51f
 2438 04b9 17       		.uleb128 0x17
 2439 04ba 7E030000 		.4byte	.LASF33
 2440 04be 01       		.byte	0x1
 2441 04bf C201     		.2byte	0x1c2
 2442 04c1 8C000000 		.4byte	0x8c
 2443 04c5 05       		.uleb128 0x5
 2444 04c6 03       		.byte	0x3
 2445 04c7 18000000 		.4byte	indication_timer.5471
 2446 04cb 06       		.uleb128 0x6
 2447 04cc FE030000 		.4byte	.LBB13
 2448 04d0 34000000 		.4byte	.LBE13-.LBB13
 2449 04d4 17       		.uleb128 0x17
 2450 04d5 3D020000 		.4byte	.LASF34
 2451 04d9 01       		.byte	0x1
 2452 04da C801     		.2byte	0x1c8
 2453 04dc 8E050000 		.4byte	0x58e
 2454 04e0 02       		.uleb128 0x2
 2455 04e1 91       		.byte	0x91
 2456 04e2 68       		.sleb128 -24
 2457 04e3 0B       		.uleb128 0xb
 2458 04e4 12040000 		.4byte	.LBB14
 2459 04e8 20000000 		.4byte	.LBE14-.LBB14
 2460 04ec FF040000 		.4byte	0x4ff
 2461 04f0 18       		.uleb128 0x18
 2462 04f1 6900     		.ascii	"i\000"
ARM GAS  C:\Users\User\AppData\Local\Temp\ccwxAVLH.s 			page 54


 2463 04f3 01       		.byte	0x1
 2464 04f4 C901     		.2byte	0x1c9
 2465 04f6 73000000 		.4byte	0x73
 2466 04fa 26040000 		.4byte	.LLST16
 2467 04fe 00       		.byte	0
 2468 04ff 13       		.uleb128 0x13
 2469 0500 12040000 		.4byte	.LVL142
 2470 0504 9E070000 		.4byte	0x79e
 2471 0508 09       		.uleb128 0x9
 2472 0509 01       		.uleb128 0x1
 2473 050a 50       		.byte	0x50
 2474 050b 02       		.uleb128 0x2
 2475 050c 7D       		.byte	0x7d
 2476 050d 00       		.sleb128 0
 2477 050e 09       		.uleb128 0x9
 2478 050f 01       		.uleb128 0x1
 2479 0510 51       		.byte	0x51
 2480 0511 05       		.uleb128 0x5
 2481 0512 03       		.byte	0x3
 2482 0513 40000000 		.4byte	.LANCHOR0+64
 2483 0517 09       		.uleb128 0x9
 2484 0518 01       		.uleb128 0x1
 2485 0519 52       		.byte	0x52
 2486 051a 01       		.uleb128 0x1
 2487 051b 38       		.byte	0x38
 2488 051c 00       		.byte	0
 2489 051d 00       		.byte	0
 2490 051e 00       		.byte	0
 2491 051f 0D       		.uleb128 0xd
 2492 0520 0A000000 		.4byte	.LVL71
 2493 0524 A7070000 		.4byte	0x7a7
 2494 0528 11       		.uleb128 0x11
 2495 0529 10000000 		.4byte	.LVL72
 2496 052d B2070000 		.4byte	0x7b2
 2497 0531 3F050000 		.4byte	0x53f
 2498 0535 09       		.uleb128 0x9
 2499 0536 01       		.uleb128 0x1
 2500 0537 50       		.byte	0x50
 2501 0538 05       		.uleb128 0x5
 2502 0539 03       		.byte	0x3
 2503 053a 00000000 		.4byte	Timer_Display_Handler
 2504 053e 00       		.byte	0
 2505 053f 0D       		.uleb128 0xd
 2506 0540 14000000 		.4byte	.LVL73
 2507 0544 BA000000 		.4byte	0xba
 2508 0548 0D       		.uleb128 0xd
 2509 0549 1C000000 		.4byte	.LVL75
 2510 054d 14020000 		.4byte	0x214
 2511 0551 0D       		.uleb128 0xd
 2512 0552 08010000 		.4byte	.LVL97
 2513 0556 93010000 		.4byte	0x193
 2514 055a 0D       		.uleb128 0xd
 2515 055b 1E010000 		.4byte	.LVL100
 2516 055f B2010000 		.4byte	0x1b2
 2517 0563 0D       		.uleb128 0xd
 2518 0564 CA020000 		.4byte	.LVL123
 2519 0568 3A010000 		.4byte	0x13a
ARM GAS  C:\Users\User\AppData\Local\Temp\ccwxAVLH.s 			page 55


 2520 056c 0D       		.uleb128 0xd
 2521 056d 98030000 		.4byte	.LVL139
 2522 0571 82010000 		.4byte	0x182
 2523 0575 0D       		.uleb128 0xd
 2524 0576 CC030000 		.4byte	.LVL141
 2525 057a FE000000 		.4byte	0xfe
 2526 057e 13       		.uleb128 0x13
 2527 057f 38040000 		.4byte	.LVL146
 2528 0583 BD070000 		.4byte	0x7bd
 2529 0587 09       		.uleb128 0x9
 2530 0588 01       		.uleb128 0x1
 2531 0589 50       		.byte	0x50
 2532 058a 01       		.uleb128 0x1
 2533 058b 3A       		.byte	0x3a
 2534 058c 00       		.byte	0
 2535 058d 00       		.byte	0
 2536 058e 19       		.uleb128 0x19
 2537 058f 81000000 		.4byte	0x81
 2538 0593 9E050000 		.4byte	0x59e
 2539 0597 1A       		.uleb128 0x1a
 2540 0598 B3000000 		.4byte	0xb3
 2541 059c 07       		.byte	0x7
 2542 059d 00       		.byte	0
 2543 059e 19       		.uleb128 0x19
 2544 059f 81000000 		.4byte	0x81
 2545 05a3 AE050000 		.4byte	0x5ae
 2546 05a7 1A       		.uleb128 0x1a
 2547 05a8 B3000000 		.4byte	0xb3
 2548 05ac 11       		.byte	0x11
 2549 05ad 00       		.byte	0
 2550 05ae 1B       		.uleb128 0x1b
 2551 05af 85010000 		.4byte	.LASF35
 2552 05b3 01       		.byte	0x1
 2553 05b4 10       		.byte	0x10
 2554 05b5 BF050000 		.4byte	0x5bf
 2555 05b9 05       		.uleb128 0x5
 2556 05ba 03       		.byte	0x3
 2557 05bb 2C000000 		.4byte	SEGMENT_CODES
 2558 05bf 1C       		.uleb128 0x1c
 2559 05c0 9E050000 		.4byte	0x59e
 2560 05c4 1B       		.uleb128 0x1b
 2561 05c5 BC010000 		.4byte	.LASF36
 2562 05c9 01       		.byte	0x1
 2563 05ca 26       		.byte	0x26
 2564 05cb 8E050000 		.4byte	0x58e
 2565 05cf 05       		.uleb128 0x5
 2566 05d0 03       		.byte	0x3
 2567 05d1 00000000 		.4byte	display_data
 2568 05d5 1B       		.uleb128 0x1b
 2569 05d6 34030000 		.4byte	.LASF37
 2570 05da 01       		.byte	0x1
 2571 05db 29       		.byte	0x29
 2572 05dc 81000000 		.4byte	0x81
 2573 05e0 05       		.uleb128 0x5
 2574 05e1 03       		.byte	0x3
 2575 05e2 0A000000 		.4byte	current_digit
 2576 05e6 19       		.uleb128 0x19
ARM GAS  C:\Users\User\AppData\Local\Temp\ccwxAVLH.s 			page 56


 2577 05e7 81000000 		.4byte	0x81
 2578 05eb F6050000 		.4byte	0x5f6
 2579 05ef 1A       		.uleb128 0x1a
 2580 05f0 B3000000 		.4byte	0xb3
 2581 05f4 03       		.byte	0x3
 2582 05f5 00       		.byte	0
 2583 05f6 1B       		.uleb128 0x1b
 2584 05f7 2F000000 		.4byte	.LASF38
 2585 05fb 01       		.byte	0x1
 2586 05fc 2C       		.byte	0x2c
 2587 05fd 07060000 		.4byte	0x607
 2588 0601 05       		.uleb128 0x5
 2589 0602 03       		.byte	0x3
 2590 0603 0C000000 		.4byte	password
 2591 0607 1C       		.uleb128 0x1c
 2592 0608 E6050000 		.4byte	0x5e6
 2593 060c 1B       		.uleb128 0x1b
 2594 060d D7030000 		.4byte	.LASF39
 2595 0611 01       		.byte	0x1
 2596 0612 2D       		.byte	0x2d
 2597 0613 E6050000 		.4byte	0x5e6
 2598 0617 05       		.uleb128 0x5
 2599 0618 03       		.byte	0x3
 2600 0619 04000000 		.4byte	input_buffer
 2601 061d 1B       		.uleb128 0x1b
 2602 061e 23000000 		.4byte	.LASF40
 2603 0622 01       		.byte	0x1
 2604 0623 2E       		.byte	0x2e
 2605 0624 81000000 		.4byte	0x81
 2606 0628 05       		.uleb128 0x5
 2607 0629 03       		.byte	0x3
 2608 062a 08000000 		.4byte	input_index
 2609 062e 1B       		.uleb128 0x1b
 2610 062f 1C020000 		.4byte	.LASF41
 2611 0633 01       		.byte	0x1
 2612 0634 2F       		.byte	0x2f
 2613 0635 81000000 		.4byte	0x81
 2614 0639 05       		.uleb128 0x5
 2615 063a 03       		.byte	0x3
 2616 063b 00000000 		.4byte	password_mode
 2617 063f 1B       		.uleb128 0x1b
 2618 0640 0A010000 		.4byte	.LASF42
 2619 0644 01       		.byte	0x1
 2620 0645 30       		.byte	0x30
 2621 0646 81000000 		.4byte	0x81
 2622 064a 05       		.uleb128 0x5
 2623 064b 03       		.byte	0x3
 2624 064c 01000000 		.4byte	password_verified
 2625 0650 1B       		.uleb128 0x1b
 2626 0651 2A010000 		.4byte	.LASF43
 2627 0655 01       		.byte	0x1
 2628 0656 33       		.byte	0x33
 2629 0657 81000000 		.4byte	0x81
 2630 065b 05       		.uleb128 0x5
 2631 065c 03       		.byte	0x3
 2632 065d 08000000 		.4byte	timer_minutes
 2633 0661 1B       		.uleb128 0x1b
ARM GAS  C:\Users\User\AppData\Local\Temp\ccwxAVLH.s 			page 57


 2634 0662 1C010000 		.4byte	.LASF44
 2635 0666 01       		.byte	0x1
 2636 0667 34       		.byte	0x34
 2637 0668 81000000 		.4byte	0x81
 2638 066c 05       		.uleb128 0x5
 2639 066d 03       		.byte	0x3
 2640 066e 09000000 		.4byte	timer_seconds
 2641 0672 1B       		.uleb128 0x1b
 2642 0673 6C010000 		.4byte	.LASF45
 2643 0677 01       		.byte	0x1
 2644 0678 35       		.byte	0x35
 2645 0679 8C000000 		.4byte	0x8c
 2646 067d 05       		.uleb128 0x5
 2647 067e 03       		.byte	0x3
 2648 067f 0C000000 		.4byte	timer_counter
 2649 0683 1B       		.uleb128 0x1b
 2650 0684 F0010000 		.4byte	.LASF46
 2651 0688 01       		.byte	0x1
 2652 0689 36       		.byte	0x36
 2653 068a 81000000 		.4byte	0x81
 2654 068e 05       		.uleb128 0x5
 2655 068f 03       		.byte	0x3
 2656 0690 02000000 		.4byte	timer_running
 2657 0694 1B       		.uleb128 0x1b
 2658 0695 A2030000 		.4byte	.LASF47
 2659 0699 01       		.byte	0x1
 2660 069a 39       		.byte	0x39
 2661 069b 8C000000 		.4byte	0x8c
 2662 069f 05       		.uleb128 0x5
 2663 06a0 03       		.byte	0x3
 2664 06a1 10000000 		.4byte	shift_counter
 2665 06a5 1B       		.uleb128 0x1b
 2666 06a6 FE010000 		.4byte	.LASF48
 2667 06aa 01       		.byte	0x1
 2668 06ab 3A       		.byte	0x3a
 2669 06ac 8C000000 		.4byte	0x8c
 2670 06b0 05       		.uleb128 0x5
 2671 06b1 03       		.byte	0x3
 2672 06b2 14000000 		.4byte	blink_counter
 2673 06b6 1B       		.uleb128 0x1b
 2674 06b7 B4020000 		.4byte	.LASF49
 2675 06bb 01       		.byte	0x1
 2676 06bc 3B       		.byte	0x3b
 2677 06bd 81000000 		.4byte	0x81
 2678 06c1 05       		.uleb128 0x5
 2679 06c2 03       		.byte	0x3
 2680 06c3 0B000000 		.4byte	blink_state
 2681 06c7 19       		.uleb128 0x19
 2682 06c8 81000000 		.4byte	0x81
 2683 06cc DD060000 		.4byte	0x6dd
 2684 06d0 1A       		.uleb128 0x1a
 2685 06d1 B3000000 		.4byte	0xb3
 2686 06d5 03       		.byte	0x3
 2687 06d6 1A       		.uleb128 0x1a
 2688 06d7 B3000000 		.4byte	0xb3
 2689 06db 02       		.byte	0x2
 2690 06dc 00       		.byte	0
ARM GAS  C:\Users\User\AppData\Local\Temp\ccwxAVLH.s 			page 58


 2691 06dd 1B       		.uleb128 0x1b
 2692 06de C0020000 		.4byte	.LASF50
 2693 06e2 01       		.byte	0x1
 2694 06e3 3E       		.byte	0x3e
 2695 06e4 C7060000 		.4byte	0x6c7
 2696 06e8 05       		.uleb128 0x5
 2697 06e9 03       		.byte	0x3
 2698 06ea 0C000000 		.4byte	keys
 2699 06ee 19       		.uleb128 0x19
 2700 06ef FE060000 		.4byte	0x6fe
 2701 06f3 FE060000 		.4byte	0x6fe
 2702 06f7 1A       		.uleb128 0x1a
 2703 06f8 B3000000 		.4byte	0xb3
 2704 06fc 02       		.byte	0x2
 2705 06fd 00       		.byte	0
 2706 06fe 1D       		.uleb128 0x1d
 2707 06ff 04       		.byte	0x4
 2708 0700 04070000 		.4byte	0x704
 2709 0704 1E       		.uleb128 0x1e
 2710 0705 0F070000 		.4byte	0x70f
 2711 0709 1F       		.uleb128 0x1f
 2712 070a 81000000 		.4byte	0x81
 2713 070e 00       		.byte	0
 2714 070f 1B       		.uleb128 0x1b
 2715 0710 B0030000 		.4byte	.LASF51
 2716 0714 01       		.byte	0x1
 2717 0715 46       		.byte	0x46
 2718 0716 20070000 		.4byte	0x720
 2719 071a 05       		.uleb128 0x5
 2720 071b 03       		.byte	0x3
 2721 071c 00000000 		.4byte	COLUMN_SetDriveMode
 2722 0720 1C       		.uleb128 0x1c
 2723 0721 EE060000 		.4byte	0x6ee
 2724 0725 1B       		.uleb128 0x1b
 2725 0726 00000000 		.4byte	.LASF52
 2726 072a 01       		.byte	0x1
 2727 072b 4C       		.byte	0x4c
 2728 072c 36070000 		.4byte	0x736
 2729 0730 05       		.uleb128 0x5
 2730 0731 03       		.byte	0x3
 2731 0732 10000000 		.4byte	COLUMN_Write
 2732 0736 1C       		.uleb128 0x1c
 2733 0737 EE060000 		.4byte	0x6ee
 2734 073b 19       		.uleb128 0x19
 2735 073c 4B070000 		.4byte	0x74b
 2736 0740 4B070000 		.4byte	0x74b
 2737 0744 1A       		.uleb128 0x1a
 2738 0745 B3000000 		.4byte	0xb3
 2739 0749 03       		.byte	0x3
 2740 074a 00       		.byte	0
 2741 074b 1D       		.uleb128 0x1d
 2742 074c 04       		.byte	0x4
 2743 074d 51070000 		.4byte	0x751
 2744 0751 20       		.uleb128 0x20
 2745 0752 81000000 		.4byte	0x81
 2746 0756 5C070000 		.4byte	0x75c
 2747 075a 21       		.uleb128 0x21
ARM GAS  C:\Users\User\AppData\Local\Temp\ccwxAVLH.s 			page 59


 2748 075b 00       		.byte	0
 2749 075c 1B       		.uleb128 0x1b
 2750 075d 93010000 		.4byte	.LASF53
 2751 0761 01       		.byte	0x1
 2752 0762 53       		.byte	0x53
 2753 0763 6D070000 		.4byte	0x76d
 2754 0767 05       		.uleb128 0x5
 2755 0768 03       		.byte	0x3
 2756 0769 1C000000 		.4byte	ROW_Read
 2757 076d 1C       		.uleb128 0x1c
 2758 076e 3B070000 		.4byte	0x73b
 2759 0772 22       		.uleb128 0x22
 2760 0773 5B010000 		.4byte	.LASF54
 2761 0777 5B010000 		.4byte	.LASF54
 2762 077b 04       		.byte	0x4
 2763 077c ED       		.byte	0xed
 2764 077d 22       		.uleb128 0x22
 2765 077e 4E010000 		.4byte	.LASF55
 2766 0782 4E010000 		.4byte	.LASF55
 2767 0786 05       		.byte	0x5
 2768 0787 33       		.byte	0x33
 2769 0788 22       		.uleb128 0x22
 2770 0789 47030000 		.4byte	.LASF56
 2771 078d 47030000 		.4byte	.LASF56
 2772 0791 06       		.byte	0x6
 2773 0792 33       		.byte	0x33
 2774 0793 22       		.uleb128 0x22
 2775 0794 DE020000 		.4byte	.LASF57
 2776 0798 DE020000 		.4byte	.LASF57
 2777 079c 07       		.byte	0x7
 2778 079d 33       		.byte	0x33
 2779 079e 23       		.uleb128 0x23
 2780 079f 77030000 		.4byte	.LASF67
 2781 07a3 77030000 		.4byte	.LASF67
 2782 07a7 22       		.uleb128 0x22
 2783 07a8 C9010000 		.4byte	.LASF58
 2784 07ac C9010000 		.4byte	.LASF58
 2785 07b0 08       		.byte	0x8
 2786 07b1 5A       		.byte	0x5a
 2787 07b2 22       		.uleb128 0x22
 2788 07b3 65030000 		.4byte	.LASF59
 2789 07b7 65030000 		.4byte	.LASF59
 2790 07bb 09       		.byte	0x9
 2791 07bc 18       		.byte	0x18
 2792 07bd 22       		.uleb128 0x22
 2793 07be 9A030000 		.4byte	.LASF60
 2794 07c2 9A030000 		.4byte	.LASF60
 2795 07c6 04       		.byte	0x4
 2796 07c7 EC       		.byte	0xec
 2797 07c8 00       		.byte	0
 2798              		.section	.debug_abbrev,"",%progbits
 2799              	.Ldebug_abbrev0:
 2800 0000 01       		.uleb128 0x1
 2801 0001 11       		.uleb128 0x11
 2802 0002 01       		.byte	0x1
 2803 0003 25       		.uleb128 0x25
 2804 0004 0E       		.uleb128 0xe
ARM GAS  C:\Users\User\AppData\Local\Temp\ccwxAVLH.s 			page 60


 2805 0005 13       		.uleb128 0x13
 2806 0006 0B       		.uleb128 0xb
 2807 0007 03       		.uleb128 0x3
 2808 0008 0E       		.uleb128 0xe
 2809 0009 1B       		.uleb128 0x1b
 2810 000a 0E       		.uleb128 0xe
 2811 000b 55       		.uleb128 0x55
 2812 000c 17       		.uleb128 0x17
 2813 000d 11       		.uleb128 0x11
 2814 000e 01       		.uleb128 0x1
 2815 000f 10       		.uleb128 0x10
 2816 0010 17       		.uleb128 0x17
 2817 0011 00       		.byte	0
 2818 0012 00       		.byte	0
 2819 0013 02       		.uleb128 0x2
 2820 0014 24       		.uleb128 0x24
 2821 0015 00       		.byte	0
 2822 0016 0B       		.uleb128 0xb
 2823 0017 0B       		.uleb128 0xb
 2824 0018 3E       		.uleb128 0x3e
 2825 0019 0B       		.uleb128 0xb
 2826 001a 03       		.uleb128 0x3
 2827 001b 0E       		.uleb128 0xe
 2828 001c 00       		.byte	0
 2829 001d 00       		.byte	0
 2830 001e 03       		.uleb128 0x3
 2831 001f 16       		.uleb128 0x16
 2832 0020 00       		.byte	0
 2833 0021 03       		.uleb128 0x3
 2834 0022 0E       		.uleb128 0xe
 2835 0023 3A       		.uleb128 0x3a
 2836 0024 0B       		.uleb128 0xb
 2837 0025 3B       		.uleb128 0x3b
 2838 0026 0B       		.uleb128 0xb
 2839 0027 49       		.uleb128 0x49
 2840 0028 13       		.uleb128 0x13
 2841 0029 00       		.byte	0
 2842 002a 00       		.byte	0
 2843 002b 04       		.uleb128 0x4
 2844 002c 24       		.uleb128 0x24
 2845 002d 00       		.byte	0
 2846 002e 0B       		.uleb128 0xb
 2847 002f 0B       		.uleb128 0xb
 2848 0030 3E       		.uleb128 0x3e
 2849 0031 0B       		.uleb128 0xb
 2850 0032 03       		.uleb128 0x3
 2851 0033 08       		.uleb128 0x8
 2852 0034 00       		.byte	0
 2853 0035 00       		.byte	0
 2854 0036 05       		.uleb128 0x5
 2855 0037 2E       		.uleb128 0x2e
 2856 0038 01       		.byte	0x1
 2857 0039 03       		.uleb128 0x3
 2858 003a 0E       		.uleb128 0xe
 2859 003b 3A       		.uleb128 0x3a
 2860 003c 0B       		.uleb128 0xb
 2861 003d 3B       		.uleb128 0x3b
ARM GAS  C:\Users\User\AppData\Local\Temp\ccwxAVLH.s 			page 61


 2862 003e 0B       		.uleb128 0xb
 2863 003f 27       		.uleb128 0x27
 2864 0040 19       		.uleb128 0x19
 2865 0041 11       		.uleb128 0x11
 2866 0042 01       		.uleb128 0x1
 2867 0043 12       		.uleb128 0x12
 2868 0044 06       		.uleb128 0x6
 2869 0045 40       		.uleb128 0x40
 2870 0046 18       		.uleb128 0x18
 2871 0047 9742     		.uleb128 0x2117
 2872 0049 19       		.uleb128 0x19
 2873 004a 01       		.uleb128 0x1
 2874 004b 13       		.uleb128 0x13
 2875 004c 00       		.byte	0
 2876 004d 00       		.byte	0
 2877 004e 06       		.uleb128 0x6
 2878 004f 0B       		.uleb128 0xb
 2879 0050 01       		.byte	0x1
 2880 0051 11       		.uleb128 0x11
 2881 0052 01       		.uleb128 0x1
 2882 0053 12       		.uleb128 0x12
 2883 0054 06       		.uleb128 0x6
 2884 0055 00       		.byte	0
 2885 0056 00       		.byte	0
 2886 0057 07       		.uleb128 0x7
 2887 0058 34       		.uleb128 0x34
 2888 0059 00       		.byte	0
 2889 005a 03       		.uleb128 0x3
 2890 005b 08       		.uleb128 0x8
 2891 005c 3A       		.uleb128 0x3a
 2892 005d 0B       		.uleb128 0xb
 2893 005e 3B       		.uleb128 0x3b
 2894 005f 0B       		.uleb128 0xb
 2895 0060 49       		.uleb128 0x49
 2896 0061 13       		.uleb128 0x13
 2897 0062 02       		.uleb128 0x2
 2898 0063 17       		.uleb128 0x17
 2899 0064 00       		.byte	0
 2900 0065 00       		.byte	0
 2901 0066 08       		.uleb128 0x8
 2902 0067 898201   		.uleb128 0x4109
 2903 006a 01       		.byte	0x1
 2904 006b 11       		.uleb128 0x11
 2905 006c 01       		.uleb128 0x1
 2906 006d 9342     		.uleb128 0x2113
 2907 006f 18       		.uleb128 0x18
 2908 0070 00       		.byte	0
 2909 0071 00       		.byte	0
 2910 0072 09       		.uleb128 0x9
 2911 0073 8A8201   		.uleb128 0x410a
 2912 0076 00       		.byte	0
 2913 0077 02       		.uleb128 0x2
 2914 0078 18       		.uleb128 0x18
 2915 0079 9142     		.uleb128 0x2111
 2916 007b 18       		.uleb128 0x18
 2917 007c 00       		.byte	0
 2918 007d 00       		.byte	0
ARM GAS  C:\Users\User\AppData\Local\Temp\ccwxAVLH.s 			page 62


 2919 007e 0A       		.uleb128 0xa
 2920 007f 34       		.uleb128 0x34
 2921 0080 00       		.byte	0
 2922 0081 03       		.uleb128 0x3
 2923 0082 0E       		.uleb128 0xe
 2924 0083 3A       		.uleb128 0x3a
 2925 0084 0B       		.uleb128 0xb
 2926 0085 3B       		.uleb128 0x3b
 2927 0086 0B       		.uleb128 0xb
 2928 0087 49       		.uleb128 0x49
 2929 0088 13       		.uleb128 0x13
 2930 0089 02       		.uleb128 0x2
 2931 008a 17       		.uleb128 0x17
 2932 008b 00       		.byte	0
 2933 008c 00       		.byte	0
 2934 008d 0B       		.uleb128 0xb
 2935 008e 0B       		.uleb128 0xb
 2936 008f 01       		.byte	0x1
 2937 0090 11       		.uleb128 0x11
 2938 0091 01       		.uleb128 0x1
 2939 0092 12       		.uleb128 0x12
 2940 0093 06       		.uleb128 0x6
 2941 0094 01       		.uleb128 0x1
 2942 0095 13       		.uleb128 0x13
 2943 0096 00       		.byte	0
 2944 0097 00       		.byte	0
 2945 0098 0C       		.uleb128 0xc
 2946 0099 2E       		.uleb128 0x2e
 2947 009a 00       		.byte	0
 2948 009b 03       		.uleb128 0x3
 2949 009c 0E       		.uleb128 0xe
 2950 009d 3A       		.uleb128 0x3a
 2951 009e 0B       		.uleb128 0xb
 2952 009f 3B       		.uleb128 0x3b
 2953 00a0 0B       		.uleb128 0xb
 2954 00a1 27       		.uleb128 0x27
 2955 00a2 19       		.uleb128 0x19
 2956 00a3 11       		.uleb128 0x11
 2957 00a4 01       		.uleb128 0x1
 2958 00a5 12       		.uleb128 0x12
 2959 00a6 06       		.uleb128 0x6
 2960 00a7 40       		.uleb128 0x40
 2961 00a8 18       		.uleb128 0x18
 2962 00a9 9642     		.uleb128 0x2116
 2963 00ab 19       		.uleb128 0x19
 2964 00ac 00       		.byte	0
 2965 00ad 00       		.byte	0
 2966 00ae 0D       		.uleb128 0xd
 2967 00af 898201   		.uleb128 0x4109
 2968 00b2 00       		.byte	0
 2969 00b3 11       		.uleb128 0x11
 2970 00b4 01       		.uleb128 0x1
 2971 00b5 31       		.uleb128 0x31
 2972 00b6 13       		.uleb128 0x13
 2973 00b7 00       		.byte	0
 2974 00b8 00       		.byte	0
 2975 00b9 0E       		.uleb128 0xe
ARM GAS  C:\Users\User\AppData\Local\Temp\ccwxAVLH.s 			page 63


 2976 00ba 34       		.uleb128 0x34
 2977 00bb 00       		.byte	0
 2978 00bc 03       		.uleb128 0x3
 2979 00bd 08       		.uleb128 0x8
 2980 00be 3A       		.uleb128 0x3a
 2981 00bf 0B       		.uleb128 0xb
 2982 00c0 3B       		.uleb128 0x3b
 2983 00c1 05       		.uleb128 0x5
 2984 00c2 49       		.uleb128 0x49
 2985 00c3 13       		.uleb128 0x13
 2986 00c4 02       		.uleb128 0x2
 2987 00c5 18       		.uleb128 0x18
 2988 00c6 00       		.byte	0
 2989 00c7 00       		.byte	0
 2990 00c8 0F       		.uleb128 0xf
 2991 00c9 898201   		.uleb128 0x4109
 2992 00cc 00       		.byte	0
 2993 00cd 11       		.uleb128 0x11
 2994 00ce 01       		.uleb128 0x1
 2995 00cf 9342     		.uleb128 0x2113
 2996 00d1 18       		.uleb128 0x18
 2997 00d2 00       		.byte	0
 2998 00d3 00       		.byte	0
 2999 00d4 10       		.uleb128 0x10
 3000 00d5 898201   		.uleb128 0x4109
 3001 00d8 01       		.byte	0x1
 3002 00d9 11       		.uleb128 0x11
 3003 00da 01       		.uleb128 0x1
 3004 00db 9342     		.uleb128 0x2113
 3005 00dd 18       		.uleb128 0x18
 3006 00de 01       		.uleb128 0x1
 3007 00df 13       		.uleb128 0x13
 3008 00e0 00       		.byte	0
 3009 00e1 00       		.byte	0
 3010 00e2 11       		.uleb128 0x11
 3011 00e3 898201   		.uleb128 0x4109
 3012 00e6 01       		.byte	0x1
 3013 00e7 11       		.uleb128 0x11
 3014 00e8 01       		.uleb128 0x1
 3015 00e9 31       		.uleb128 0x31
 3016 00ea 13       		.uleb128 0x13
 3017 00eb 01       		.uleb128 0x1
 3018 00ec 13       		.uleb128 0x13
 3019 00ed 00       		.byte	0
 3020 00ee 00       		.byte	0
 3021 00ef 12       		.uleb128 0x12
 3022 00f0 05       		.uleb128 0x5
 3023 00f1 00       		.byte	0
 3024 00f2 03       		.uleb128 0x3
 3025 00f3 0E       		.uleb128 0xe
 3026 00f4 3A       		.uleb128 0x3a
 3027 00f5 0B       		.uleb128 0xb
 3028 00f6 3B       		.uleb128 0x3b
 3029 00f7 0B       		.uleb128 0xb
 3030 00f8 49       		.uleb128 0x49
 3031 00f9 13       		.uleb128 0x13
 3032 00fa 02       		.uleb128 0x2
ARM GAS  C:\Users\User\AppData\Local\Temp\ccwxAVLH.s 			page 64


 3033 00fb 17       		.uleb128 0x17
 3034 00fc 00       		.byte	0
 3035 00fd 00       		.byte	0
 3036 00fe 13       		.uleb128 0x13
 3037 00ff 898201   		.uleb128 0x4109
 3038 0102 01       		.byte	0x1
 3039 0103 11       		.uleb128 0x11
 3040 0104 01       		.uleb128 0x1
 3041 0105 31       		.uleb128 0x31
 3042 0106 13       		.uleb128 0x13
 3043 0107 00       		.byte	0
 3044 0108 00       		.byte	0
 3045 0109 14       		.uleb128 0x14
 3046 010a 2E       		.uleb128 0x2e
 3047 010b 01       		.byte	0x1
 3048 010c 3F       		.uleb128 0x3f
 3049 010d 19       		.uleb128 0x19
 3050 010e 03       		.uleb128 0x3
 3051 010f 0E       		.uleb128 0xe
 3052 0110 3A       		.uleb128 0x3a
 3053 0111 0B       		.uleb128 0xb
 3054 0112 3B       		.uleb128 0x3b
 3055 0113 0B       		.uleb128 0xb
 3056 0114 27       		.uleb128 0x27
 3057 0115 19       		.uleb128 0x19
 3058 0116 11       		.uleb128 0x11
 3059 0117 01       		.uleb128 0x1
 3060 0118 12       		.uleb128 0x12
 3061 0119 06       		.uleb128 0x6
 3062 011a 40       		.uleb128 0x40
 3063 011b 18       		.uleb128 0x18
 3064 011c 9742     		.uleb128 0x2117
 3065 011e 19       		.uleb128 0x19
 3066 011f 01       		.uleb128 0x1
 3067 0120 13       		.uleb128 0x13
 3068 0121 00       		.byte	0
 3069 0122 00       		.byte	0
 3070 0123 15       		.uleb128 0x15
 3071 0124 2E       		.uleb128 0x2e
 3072 0125 01       		.byte	0x1
 3073 0126 3F       		.uleb128 0x3f
 3074 0127 19       		.uleb128 0x19
 3075 0128 03       		.uleb128 0x3
 3076 0129 0E       		.uleb128 0xe
 3077 012a 3A       		.uleb128 0x3a
 3078 012b 0B       		.uleb128 0xb
 3079 012c 3B       		.uleb128 0x3b
 3080 012d 05       		.uleb128 0x5
 3081 012e 27       		.uleb128 0x27
 3082 012f 19       		.uleb128 0x19
 3083 0130 49       		.uleb128 0x49
 3084 0131 13       		.uleb128 0x13
 3085 0132 8701     		.uleb128 0x87
 3086 0134 19       		.uleb128 0x19
 3087 0135 11       		.uleb128 0x11
 3088 0136 01       		.uleb128 0x1
 3089 0137 12       		.uleb128 0x12
ARM GAS  C:\Users\User\AppData\Local\Temp\ccwxAVLH.s 			page 65


 3090 0138 06       		.uleb128 0x6
 3091 0139 40       		.uleb128 0x40
 3092 013a 18       		.uleb128 0x18
 3093 013b 9742     		.uleb128 0x2117
 3094 013d 19       		.uleb128 0x19
 3095 013e 01       		.uleb128 0x1
 3096 013f 13       		.uleb128 0x13
 3097 0140 00       		.byte	0
 3098 0141 00       		.byte	0
 3099 0142 16       		.uleb128 0x16
 3100 0143 34       		.uleb128 0x34
 3101 0144 00       		.byte	0
 3102 0145 03       		.uleb128 0x3
 3103 0146 0E       		.uleb128 0xe
 3104 0147 3A       		.uleb128 0x3a
 3105 0148 0B       		.uleb128 0xb
 3106 0149 3B       		.uleb128 0x3b
 3107 014a 05       		.uleb128 0x5
 3108 014b 49       		.uleb128 0x49
 3109 014c 13       		.uleb128 0x13
 3110 014d 02       		.uleb128 0x2
 3111 014e 17       		.uleb128 0x17
 3112 014f 00       		.byte	0
 3113 0150 00       		.byte	0
 3114 0151 17       		.uleb128 0x17
 3115 0152 34       		.uleb128 0x34
 3116 0153 00       		.byte	0
 3117 0154 03       		.uleb128 0x3
 3118 0155 0E       		.uleb128 0xe
 3119 0156 3A       		.uleb128 0x3a
 3120 0157 0B       		.uleb128 0xb
 3121 0158 3B       		.uleb128 0x3b
 3122 0159 05       		.uleb128 0x5
 3123 015a 49       		.uleb128 0x49
 3124 015b 13       		.uleb128 0x13
 3125 015c 02       		.uleb128 0x2
 3126 015d 18       		.uleb128 0x18
 3127 015e 00       		.byte	0
 3128 015f 00       		.byte	0
 3129 0160 18       		.uleb128 0x18
 3130 0161 34       		.uleb128 0x34
 3131 0162 00       		.byte	0
 3132 0163 03       		.uleb128 0x3
 3133 0164 08       		.uleb128 0x8
 3134 0165 3A       		.uleb128 0x3a
 3135 0166 0B       		.uleb128 0xb
 3136 0167 3B       		.uleb128 0x3b
 3137 0168 05       		.uleb128 0x5
 3138 0169 49       		.uleb128 0x49
 3139 016a 13       		.uleb128 0x13
 3140 016b 02       		.uleb128 0x2
 3141 016c 17       		.uleb128 0x17
 3142 016d 00       		.byte	0
 3143 016e 00       		.byte	0
 3144 016f 19       		.uleb128 0x19
 3145 0170 01       		.uleb128 0x1
 3146 0171 01       		.byte	0x1
ARM GAS  C:\Users\User\AppData\Local\Temp\ccwxAVLH.s 			page 66


 3147 0172 49       		.uleb128 0x49
 3148 0173 13       		.uleb128 0x13
 3149 0174 01       		.uleb128 0x1
 3150 0175 13       		.uleb128 0x13
 3151 0176 00       		.byte	0
 3152 0177 00       		.byte	0
 3153 0178 1A       		.uleb128 0x1a
 3154 0179 21       		.uleb128 0x21
 3155 017a 00       		.byte	0
 3156 017b 49       		.uleb128 0x49
 3157 017c 13       		.uleb128 0x13
 3158 017d 2F       		.uleb128 0x2f
 3159 017e 0B       		.uleb128 0xb
 3160 017f 00       		.byte	0
 3161 0180 00       		.byte	0
 3162 0181 1B       		.uleb128 0x1b
 3163 0182 34       		.uleb128 0x34
 3164 0183 00       		.byte	0
 3165 0184 03       		.uleb128 0x3
 3166 0185 0E       		.uleb128 0xe
 3167 0186 3A       		.uleb128 0x3a
 3168 0187 0B       		.uleb128 0xb
 3169 0188 3B       		.uleb128 0x3b
 3170 0189 0B       		.uleb128 0xb
 3171 018a 49       		.uleb128 0x49
 3172 018b 13       		.uleb128 0x13
 3173 018c 02       		.uleb128 0x2
 3174 018d 18       		.uleb128 0x18
 3175 018e 00       		.byte	0
 3176 018f 00       		.byte	0
 3177 0190 1C       		.uleb128 0x1c
 3178 0191 26       		.uleb128 0x26
 3179 0192 00       		.byte	0
 3180 0193 49       		.uleb128 0x49
 3181 0194 13       		.uleb128 0x13
 3182 0195 00       		.byte	0
 3183 0196 00       		.byte	0
 3184 0197 1D       		.uleb128 0x1d
 3185 0198 0F       		.uleb128 0xf
 3186 0199 00       		.byte	0
 3187 019a 0B       		.uleb128 0xb
 3188 019b 0B       		.uleb128 0xb
 3189 019c 49       		.uleb128 0x49
 3190 019d 13       		.uleb128 0x13
 3191 019e 00       		.byte	0
 3192 019f 00       		.byte	0
 3193 01a0 1E       		.uleb128 0x1e
 3194 01a1 15       		.uleb128 0x15
 3195 01a2 01       		.byte	0x1
 3196 01a3 27       		.uleb128 0x27
 3197 01a4 19       		.uleb128 0x19
 3198 01a5 01       		.uleb128 0x1
 3199 01a6 13       		.uleb128 0x13
 3200 01a7 00       		.byte	0
 3201 01a8 00       		.byte	0
 3202 01a9 1F       		.uleb128 0x1f
 3203 01aa 05       		.uleb128 0x5
ARM GAS  C:\Users\User\AppData\Local\Temp\ccwxAVLH.s 			page 67


 3204 01ab 00       		.byte	0
 3205 01ac 49       		.uleb128 0x49
 3206 01ad 13       		.uleb128 0x13
 3207 01ae 00       		.byte	0
 3208 01af 00       		.byte	0
 3209 01b0 20       		.uleb128 0x20
 3210 01b1 15       		.uleb128 0x15
 3211 01b2 01       		.byte	0x1
 3212 01b3 49       		.uleb128 0x49
 3213 01b4 13       		.uleb128 0x13
 3214 01b5 01       		.uleb128 0x1
 3215 01b6 13       		.uleb128 0x13
 3216 01b7 00       		.byte	0
 3217 01b8 00       		.byte	0
 3218 01b9 21       		.uleb128 0x21
 3219 01ba 18       		.uleb128 0x18
 3220 01bb 00       		.byte	0
 3221 01bc 00       		.byte	0
 3222 01bd 00       		.byte	0
 3223 01be 22       		.uleb128 0x22
 3224 01bf 2E       		.uleb128 0x2e
 3225 01c0 00       		.byte	0
 3226 01c1 3F       		.uleb128 0x3f
 3227 01c2 19       		.uleb128 0x19
 3228 01c3 3C       		.uleb128 0x3c
 3229 01c4 19       		.uleb128 0x19
 3230 01c5 6E       		.uleb128 0x6e
 3231 01c6 0E       		.uleb128 0xe
 3232 01c7 03       		.uleb128 0x3
 3233 01c8 0E       		.uleb128 0xe
 3234 01c9 3A       		.uleb128 0x3a
 3235 01ca 0B       		.uleb128 0xb
 3236 01cb 3B       		.uleb128 0x3b
 3237 01cc 0B       		.uleb128 0xb
 3238 01cd 00       		.byte	0
 3239 01ce 00       		.byte	0
 3240 01cf 23       		.uleb128 0x23
 3241 01d0 2E       		.uleb128 0x2e
 3242 01d1 00       		.byte	0
 3243 01d2 3F       		.uleb128 0x3f
 3244 01d3 19       		.uleb128 0x19
 3245 01d4 3C       		.uleb128 0x3c
 3246 01d5 19       		.uleb128 0x19
 3247 01d6 6E       		.uleb128 0x6e
 3248 01d7 0E       		.uleb128 0xe
 3249 01d8 03       		.uleb128 0x3
 3250 01d9 0E       		.uleb128 0xe
 3251 01da 00       		.byte	0
 3252 01db 00       		.byte	0
 3253 01dc 00       		.byte	0
 3254              		.section	.debug_loc,"",%progbits
 3255              	.Ldebug_loc0:
 3256              	.LLST0:
 3257 0000 02000000 		.4byte	.LVL0
 3258 0004 06000000 		.4byte	.LVL1
 3259 0008 0200     		.2byte	0x2
 3260 000a 30       		.byte	0x30
ARM GAS  C:\Users\User\AppData\Local\Temp\ccwxAVLH.s 			page 68


 3261 000b 9F       		.byte	0x9f
 3262 000c 06000000 		.4byte	.LVL1
 3263 0010 16000000 		.4byte	.LVL4
 3264 0014 0100     		.2byte	0x1
 3265 0016 54       		.byte	0x54
 3266 0017 00000000 		.4byte	0
 3267 001b 00000000 		.4byte	0
 3268              	.LLST1:
 3269 001f 1E000000 		.4byte	.LVL5
 3270 0023 34000000 		.4byte	.LVL10
 3271 0027 0100     		.2byte	0x1
 3272 0029 54       		.byte	0x54
 3273 002a 00000000 		.4byte	0
 3274 002e 00000000 		.4byte	0
 3275              	.LLST2:
 3276 0032 1E000000 		.4byte	.LVL5
 3277 0036 22000000 		.4byte	.LVL6
 3278 003a 0200     		.2byte	0x2
 3279 003c 37       		.byte	0x37
 3280 003d 9F       		.byte	0x9f
 3281 003e 22000000 		.4byte	.LVL6
 3282 0042 2A000000 		.4byte	.LVL7
 3283 0046 0100     		.2byte	0x1
 3284 0048 53       		.byte	0x53
 3285 0049 2A000000 		.4byte	.LVL7
 3286 004d 2C000000 		.4byte	.LVL8
 3287 0051 0100     		.2byte	0x1
 3288 0053 52       		.byte	0x52
 3289 0054 2C000000 		.4byte	.LVL8
 3290 0058 32000000 		.4byte	.LVL9
 3291 005c 0100     		.2byte	0x1
 3292 005e 53       		.byte	0x53
 3293 005f 00000000 		.4byte	0
 3294 0063 00000000 		.4byte	0
 3295              	.LLST3:
 3296 0067 06000000 		.4byte	.LVL11
 3297 006b 0A000000 		.4byte	.LVL12
 3298 006f 0200     		.2byte	0x2
 3299 0071 30       		.byte	0x30
 3300 0072 9F       		.byte	0x9f
 3301 0073 0A000000 		.4byte	.LVL12
 3302 0077 1E000000 		.4byte	.LVL13
 3303 007b 0100     		.2byte	0x1
 3304 007d 53       		.byte	0x53
 3305 007e 24000000 		.4byte	.LVL14
 3306 0082 2C000000 		.4byte	.LVL16
 3307 0086 0100     		.2byte	0x1
 3308 0088 53       		.byte	0x53
 3309 0089 00000000 		.4byte	0
 3310 008d 00000000 		.4byte	0
 3311              	.LLST4:
 3312 0091 2C000000 		.4byte	.LVL16
 3313 0095 3C000000 		.4byte	.LVL18
 3314 0099 0100     		.2byte	0x1
 3315 009b 53       		.byte	0x53
 3316 009c 00000000 		.4byte	0
 3317 00a0 00000000 		.4byte	0
ARM GAS  C:\Users\User\AppData\Local\Temp\ccwxAVLH.s 			page 69


 3318              	.LLST5:
 3319 00a4 0A000000 		.4byte	.LVL24
 3320 00a8 0E000000 		.4byte	.LVL25
 3321 00ac 0200     		.2byte	0x2
 3322 00ae 30       		.byte	0x30
 3323 00af 9F       		.byte	0x9f
 3324 00b0 0E000000 		.4byte	.LVL25
 3325 00b4 20000000 		.4byte	.LVL27
 3326 00b8 0100     		.2byte	0x1
 3327 00ba 53       		.byte	0x53
 3328 00bb 00000000 		.4byte	0
 3329 00bf 00000000 		.4byte	0
 3330              	.LLST6:
 3331 00c3 22000000 		.4byte	.LVL28
 3332 00c7 26000000 		.4byte	.LVL29
 3333 00cb 0200     		.2byte	0x2
 3334 00cd 30       		.byte	0x30
 3335 00ce 9F       		.byte	0x9f
 3336 00cf 26000000 		.4byte	.LVL29
 3337 00d3 34000000 		.4byte	.LVL31
 3338 00d7 0100     		.2byte	0x1
 3339 00d9 53       		.byte	0x53
 3340 00da 00000000 		.4byte	0
 3341 00de 00000000 		.4byte	0
 3342              	.LLST7:
 3343 00e2 02000000 		.4byte	.LVL34
 3344 00e6 06000000 		.4byte	.LVL35
 3345 00ea 0200     		.2byte	0x2
 3346 00ec 30       		.byte	0x30
 3347 00ed 9F       		.byte	0x9f
 3348 00ee 06000000 		.4byte	.LVL35
 3349 00f2 4E000000 		.4byte	.LVL44
 3350 00f6 0100     		.2byte	0x1
 3351 00f8 55       		.byte	0x55
 3352 00f9 00000000 		.4byte	0
 3353 00fd 00000000 		.4byte	0
 3354              	.LLST8:
 3355 0101 1E000000 		.4byte	.LVL38
 3356 0105 22000000 		.4byte	.LVL39
 3357 0109 0200     		.2byte	0x2
 3358 010b 30       		.byte	0x30
 3359 010c 9F       		.byte	0x9f
 3360 010d 22000000 		.4byte	.LVL39
 3361 0111 4A000000 		.4byte	.LVL43
 3362 0115 0100     		.2byte	0x1
 3363 0117 54       		.byte	0x54
 3364 0118 00000000 		.4byte	0
 3365 011c 00000000 		.4byte	0
 3366              	.LLST9:
 3367 0120 00000000 		.4byte	.LVL45
 3368 0124 08000000 		.4byte	.LVL47
 3369 0128 0100     		.2byte	0x1
 3370 012a 50       		.byte	0x50
 3371 012b 08000000 		.4byte	.LVL47
 3372 012f 40000000 		.4byte	.LFE33
 3373 0133 0400     		.2byte	0x4
 3374 0135 F3       		.byte	0xf3
ARM GAS  C:\Users\User\AppData\Local\Temp\ccwxAVLH.s 			page 70


 3375 0136 01       		.uleb128 0x1
 3376 0137 50       		.byte	0x50
 3377 0138 9F       		.byte	0x9f
 3378 0139 00000000 		.4byte	0
 3379 013d 00000000 		.4byte	0
 3380              	.LLST10:
 3381 0141 04000000 		.4byte	.LVL46
 3382 0145 08000000 		.4byte	.LVL47
 3383 0149 0200     		.2byte	0x2
 3384 014b 30       		.byte	0x30
 3385 014c 9F       		.byte	0x9f
 3386 014d 08000000 		.4byte	.LVL47
 3387 0151 38000000 		.4byte	.LVL54
 3388 0155 0100     		.2byte	0x1
 3389 0157 54       		.byte	0x54
 3390 0158 3A000000 		.4byte	.LVL55
 3391 015c 3E000000 		.4byte	.LVL56
 3392 0160 0100     		.2byte	0x1
 3393 0162 54       		.byte	0x54
 3394 0163 00000000 		.4byte	0
 3395 0167 00000000 		.4byte	0
 3396              	.LLST11:
 3397 016b 00000000 		.4byte	.LVL57
 3398 016f 08000000 		.4byte	.LVL58
 3399 0173 0100     		.2byte	0x1
 3400 0175 50       		.byte	0x50
 3401 0176 08000000 		.4byte	.LVL58
 3402 017a 48000000 		.4byte	.LFE34
 3403 017e 0400     		.2byte	0x4
 3404 0180 F3       		.byte	0xf3
 3405 0181 01       		.uleb128 0x1
 3406 0182 50       		.byte	0x50
 3407 0183 9F       		.byte	0x9f
 3408 0184 00000000 		.4byte	0
 3409 0188 00000000 		.4byte	0
 3410              	.LLST12:
 3411 018c 00000000 		.4byte	.LVL57
 3412 0190 11000000 		.4byte	.LVL60-1
 3413 0194 0100     		.2byte	0x1
 3414 0196 51       		.byte	0x51
 3415 0197 11000000 		.4byte	.LVL60-1
 3416 019b 48000000 		.4byte	.LFE34
 3417 019f 0400     		.2byte	0x4
 3418 01a1 F3       		.byte	0xf3
 3419 01a2 01       		.uleb128 0x1
 3420 01a3 51       		.byte	0x51
 3421 01a4 9F       		.byte	0x9f
 3422 01a5 00000000 		.4byte	0
 3423 01a9 00000000 		.4byte	0
 3424              	.LLST13:
 3425 01ad 0E000000 		.4byte	.LVL59
 3426 01b1 11000000 		.4byte	.LVL60-1
 3427 01b5 0100     		.2byte	0x1
 3428 01b7 50       		.byte	0x50
 3429 01b8 00000000 		.4byte	0
 3430 01bc 00000000 		.4byte	0
 3431              	.LLST14:
ARM GAS  C:\Users\User\AppData\Local\Temp\ccwxAVLH.s 			page 71


 3432 01c0 14000000 		.4byte	.LVL73
 3433 01c4 18000000 		.4byte	.LVL74
 3434 01c8 0200     		.2byte	0x2
 3435 01ca 3C       		.byte	0x3c
 3436 01cb 9F       		.byte	0x9f
 3437 01cc 18000000 		.4byte	.LVL74
 3438 01d0 3C000000 		.4byte	.LVL76
 3439 01d4 0100     		.2byte	0x1
 3440 01d6 54       		.byte	0x54
 3441 01d7 3C000000 		.4byte	.LVL76
 3442 01db 44000000 		.4byte	.LVL77
 3443 01df 0200     		.2byte	0x2
 3444 01e1 31       		.byte	0x31
 3445 01e2 9F       		.byte	0x9f
 3446 01e3 44000000 		.4byte	.LVL77
 3447 01e7 50000000 		.4byte	.LVL78
 3448 01eb 0100     		.2byte	0x1
 3449 01ed 54       		.byte	0x54
 3450 01ee 50000000 		.4byte	.LVL78
 3451 01f2 58000000 		.4byte	.LVL79
 3452 01f6 0200     		.2byte	0x2
 3453 01f8 32       		.byte	0x32
 3454 01f9 9F       		.byte	0x9f
 3455 01fa 58000000 		.4byte	.LVL79
 3456 01fe 64000000 		.4byte	.LVL80
 3457 0202 0100     		.2byte	0x1
 3458 0204 54       		.byte	0x54
 3459 0205 64000000 		.4byte	.LVL80
 3460 0209 6C000000 		.4byte	.LVL81
 3461 020d 0200     		.2byte	0x2
 3462 020f 33       		.byte	0x33
 3463 0210 9F       		.byte	0x9f
 3464 0211 6C000000 		.4byte	.LVL81
 3465 0215 78000000 		.4byte	.LVL82
 3466 0219 0100     		.2byte	0x1
 3467 021b 54       		.byte	0x54
 3468 021c 78000000 		.4byte	.LVL82
 3469 0220 80000000 		.4byte	.LVL83
 3470 0224 0200     		.2byte	0x2
 3471 0226 34       		.byte	0x34
 3472 0227 9F       		.byte	0x9f
 3473 0228 80000000 		.4byte	.LVL83
 3474 022c 8C000000 		.4byte	.LVL84
 3475 0230 0100     		.2byte	0x1
 3476 0232 54       		.byte	0x54
 3477 0233 8C000000 		.4byte	.LVL84
 3478 0237 94000000 		.4byte	.LVL85
 3479 023b 0200     		.2byte	0x2
 3480 023d 35       		.byte	0x35
 3481 023e 9F       		.byte	0x9f
 3482 023f 94000000 		.4byte	.LVL85
 3483 0243 A0000000 		.4byte	.LVL86
 3484 0247 0100     		.2byte	0x1
 3485 0249 54       		.byte	0x54
 3486 024a A0000000 		.4byte	.LVL86
 3487 024e A8000000 		.4byte	.LVL87
 3488 0252 0200     		.2byte	0x2
ARM GAS  C:\Users\User\AppData\Local\Temp\ccwxAVLH.s 			page 72


 3489 0254 36       		.byte	0x36
 3490 0255 9F       		.byte	0x9f
 3491 0256 A8000000 		.4byte	.LVL87
 3492 025a B4000000 		.4byte	.LVL88
 3493 025e 0100     		.2byte	0x1
 3494 0260 54       		.byte	0x54
 3495 0261 B4000000 		.4byte	.LVL88
 3496 0265 BC000000 		.4byte	.LVL89
 3497 0269 0200     		.2byte	0x2
 3498 026b 37       		.byte	0x37
 3499 026c 9F       		.byte	0x9f
 3500 026d BC000000 		.4byte	.LVL89
 3501 0271 C8000000 		.4byte	.LVL90
 3502 0275 0100     		.2byte	0x1
 3503 0277 54       		.byte	0x54
 3504 0278 C8000000 		.4byte	.LVL90
 3505 027c D0000000 		.4byte	.LVL91
 3506 0280 0200     		.2byte	0x2
 3507 0282 38       		.byte	0x38
 3508 0283 9F       		.byte	0x9f
 3509 0284 D0000000 		.4byte	.LVL91
 3510 0288 DC000000 		.4byte	.LVL92
 3511 028c 0100     		.2byte	0x1
 3512 028e 54       		.byte	0x54
 3513 028f DC000000 		.4byte	.LVL92
 3514 0293 E4000000 		.4byte	.LVL93
 3515 0297 0200     		.2byte	0x2
 3516 0299 39       		.byte	0x39
 3517 029a 9F       		.byte	0x9f
 3518 029b E4000000 		.4byte	.LVL93
 3519 029f F0000000 		.4byte	.LVL94
 3520 02a3 0100     		.2byte	0x1
 3521 02a5 54       		.byte	0x54
 3522 02a6 F0000000 		.4byte	.LVL94
 3523 02aa F8000000 		.4byte	.LVL95
 3524 02ae 0200     		.2byte	0x2
 3525 02b0 30       		.byte	0x30
 3526 02b1 9F       		.byte	0x9f
 3527 02b2 F8000000 		.4byte	.LVL95
 3528 02b6 04010000 		.4byte	.LVL96
 3529 02ba 0100     		.2byte	0x1
 3530 02bc 54       		.byte	0x54
 3531 02bd 04010000 		.4byte	.LVL96
 3532 02c1 0A010000 		.4byte	.LVL98
 3533 02c5 0200     		.2byte	0x2
 3534 02c7 3A       		.byte	0x3a
 3535 02c8 9F       		.byte	0x9f
 3536 02c9 0A010000 		.4byte	.LVL98
 3537 02cd 1A010000 		.4byte	.LVL99
 3538 02d1 0100     		.2byte	0x1
 3539 02d3 54       		.byte	0x54
 3540 02d4 1A010000 		.4byte	.LVL99
 3541 02d8 30010000 		.4byte	.LVL101
 3542 02dc 0200     		.2byte	0x2
 3543 02de 3B       		.byte	0x3b
 3544 02df 9F       		.byte	0x9f
 3545 02e0 30010000 		.4byte	.LVL101
ARM GAS  C:\Users\User\AppData\Local\Temp\ccwxAVLH.s 			page 73


 3546 02e4 4A010000 		.4byte	.LVL102
 3547 02e8 0100     		.2byte	0x1
 3548 02ea 54       		.byte	0x54
 3549 02eb 4A010000 		.4byte	.LVL102
 3550 02ef 5C010000 		.4byte	.LVL103
 3551 02f3 0200     		.2byte	0x2
 3552 02f5 31       		.byte	0x31
 3553 02f6 9F       		.byte	0x9f
 3554 02f7 5C010000 		.4byte	.LVL103
 3555 02fb 70010000 		.4byte	.LVL104
 3556 02ff 0100     		.2byte	0x1
 3557 0301 54       		.byte	0x54
 3558 0302 70010000 		.4byte	.LVL104
 3559 0306 82010000 		.4byte	.LVL105
 3560 030a 0200     		.2byte	0x2
 3561 030c 32       		.byte	0x32
 3562 030d 9F       		.byte	0x9f
 3563 030e 82010000 		.4byte	.LVL105
 3564 0312 96010000 		.4byte	.LVL106
 3565 0316 0100     		.2byte	0x1
 3566 0318 54       		.byte	0x54
 3567 0319 96010000 		.4byte	.LVL106
 3568 031d A8010000 		.4byte	.LVL107
 3569 0321 0200     		.2byte	0x2
 3570 0323 33       		.byte	0x33
 3571 0324 9F       		.byte	0x9f
 3572 0325 A8010000 		.4byte	.LVL107
 3573 0329 BC010000 		.4byte	.LVL108
 3574 032d 0100     		.2byte	0x1
 3575 032f 54       		.byte	0x54
 3576 0330 BC010000 		.4byte	.LVL108
 3577 0334 CE010000 		.4byte	.LVL109
 3578 0338 0200     		.2byte	0x2
 3579 033a 34       		.byte	0x34
 3580 033b 9F       		.byte	0x9f
 3581 033c CE010000 		.4byte	.LVL109
 3582 0340 E2010000 		.4byte	.LVL110
 3583 0344 0100     		.2byte	0x1
 3584 0346 54       		.byte	0x54
 3585 0347 E2010000 		.4byte	.LVL110
 3586 034b F4010000 		.4byte	.LVL111
 3587 034f 0200     		.2byte	0x2
 3588 0351 35       		.byte	0x35
 3589 0352 9F       		.byte	0x9f
 3590 0353 F4010000 		.4byte	.LVL111
 3591 0357 08020000 		.4byte	.LVL112
 3592 035b 0100     		.2byte	0x1
 3593 035d 54       		.byte	0x54
 3594 035e 08020000 		.4byte	.LVL112
 3595 0362 1A020000 		.4byte	.LVL113
 3596 0366 0200     		.2byte	0x2
 3597 0368 36       		.byte	0x36
 3598 0369 9F       		.byte	0x9f
 3599 036a 1A020000 		.4byte	.LVL113
 3600 036e 2E020000 		.4byte	.LVL114
 3601 0372 0100     		.2byte	0x1
 3602 0374 54       		.byte	0x54
ARM GAS  C:\Users\User\AppData\Local\Temp\ccwxAVLH.s 			page 74


 3603 0375 2E020000 		.4byte	.LVL114
 3604 0379 40020000 		.4byte	.LVL115
 3605 037d 0200     		.2byte	0x2
 3606 037f 37       		.byte	0x37
 3607 0380 9F       		.byte	0x9f
 3608 0381 40020000 		.4byte	.LVL115
 3609 0385 54020000 		.4byte	.LVL116
 3610 0389 0100     		.2byte	0x1
 3611 038b 54       		.byte	0x54
 3612 038c 54020000 		.4byte	.LVL116
 3613 0390 66020000 		.4byte	.LVL117
 3614 0394 0200     		.2byte	0x2
 3615 0396 38       		.byte	0x38
 3616 0397 9F       		.byte	0x9f
 3617 0398 66020000 		.4byte	.LVL117
 3618 039c 7A020000 		.4byte	.LVL118
 3619 03a0 0100     		.2byte	0x1
 3620 03a2 54       		.byte	0x54
 3621 03a3 7A020000 		.4byte	.LVL118
 3622 03a7 8C020000 		.4byte	.LVL119
 3623 03ab 0200     		.2byte	0x2
 3624 03ad 39       		.byte	0x39
 3625 03ae 9F       		.byte	0x9f
 3626 03af 8C020000 		.4byte	.LVL119
 3627 03b3 A0020000 		.4byte	.LVL120
 3628 03b7 0100     		.2byte	0x1
 3629 03b9 54       		.byte	0x54
 3630 03ba A0020000 		.4byte	.LVL120
 3631 03be B2020000 		.4byte	.LVL121
 3632 03c2 0200     		.2byte	0x2
 3633 03c4 30       		.byte	0x30
 3634 03c5 9F       		.byte	0x9f
 3635 03c6 B2020000 		.4byte	.LVL121
 3636 03ca C6020000 		.4byte	.LVL122
 3637 03ce 0100     		.2byte	0x1
 3638 03d0 54       		.byte	0x54
 3639 03d1 C6020000 		.4byte	.LVL122
 3640 03d5 CC020000 		.4byte	.LVL124
 3641 03d9 0200     		.2byte	0x2
 3642 03db 3B       		.byte	0x3b
 3643 03dc 9F       		.byte	0x9f
 3644 03dd CC020000 		.4byte	.LVL124
 3645 03e1 40040000 		.4byte	.LFE42
 3646 03e5 0100     		.2byte	0x1
 3647 03e7 54       		.byte	0x54
 3648 03e8 00000000 		.4byte	0
 3649 03ec 00000000 		.4byte	0
 3650              	.LLST15:
 3651 03f0 14000000 		.4byte	.LVL73
 3652 03f4 18000000 		.4byte	.LVL74
 3653 03f8 0200     		.2byte	0x2
 3654 03fa 30       		.byte	0x30
 3655 03fb 9F       		.byte	0x9f
 3656 03fc 18000000 		.4byte	.LVL74
 3657 0400 82030000 		.4byte	.LVL138
 3658 0404 0100     		.2byte	0x1
 3659 0406 55       		.byte	0x55
ARM GAS  C:\Users\User\AppData\Local\Temp\ccwxAVLH.s 			page 75


 3660 0407 82030000 		.4byte	.LVL138
 3661 040b 9E030000 		.4byte	.LVL140
 3662 040f 0200     		.2byte	0x2
 3663 0411 30       		.byte	0x30
 3664 0412 9F       		.byte	0x9f
 3665 0413 9E030000 		.4byte	.LVL140
 3666 0417 40040000 		.4byte	.LFE42
 3667 041b 0100     		.2byte	0x1
 3668 041d 55       		.byte	0x55
 3669 041e 00000000 		.4byte	0
 3670 0422 00000000 		.4byte	0
 3671              	.LLST16:
 3672 0426 12040000 		.4byte	.LVL142
 3673 042a 24040000 		.4byte	.LVL143
 3674 042e 0200     		.2byte	0x2
 3675 0430 30       		.byte	0x30
 3676 0431 9F       		.byte	0x9f
 3677 0432 24040000 		.4byte	.LVL143
 3678 0436 32040000 		.4byte	.LVL145
 3679 043a 0100     		.2byte	0x1
 3680 043c 53       		.byte	0x53
 3681 043d 00000000 		.4byte	0
 3682 0441 00000000 		.4byte	0
 3683              		.section	.debug_aranges,"",%progbits
 3684 0000 6C000000 		.4byte	0x6c
 3685 0004 0200     		.2byte	0x2
 3686 0006 00000000 		.4byte	.Ldebug_info0
 3687 000a 04       		.byte	0x4
 3688 000b 00       		.byte	0
 3689 000c 0000     		.2byte	0
 3690 000e 0000     		.2byte	0
 3691 0010 00000000 		.4byte	.LFB35
 3692 0014 1C000000 		.4byte	.LFE35-.LFB35
 3693 0018 00000000 		.4byte	.LFB37
 3694 001c 40000000 		.4byte	.LFE37-.LFB37
 3695 0020 00000000 		.4byte	.LFB38
 3696 0024 4C000000 		.4byte	.LFE38-.LFB38
 3697 0028 00000000 		.4byte	.LFB39
 3698 002c 70000000 		.4byte	.LFE39-.LFB39
 3699 0030 00000000 		.4byte	.LFB40
 3700 0034 20000000 		.4byte	.LFE40-.LFB40
 3701 0038 00000000 		.4byte	.LFB41
 3702 003c 4C000000 		.4byte	.LFE41-.LFB41
 3703 0040 00000000 		.4byte	.LFB36
 3704 0044 58000000 		.4byte	.LFE36-.LFB36
 3705 0048 00000000 		.4byte	.LFB33
 3706 004c 40000000 		.4byte	.LFE33-.LFB33
 3707 0050 00000000 		.4byte	.LFB34
 3708 0054 48000000 		.4byte	.LFE34-.LFB34
 3709 0058 00000000 		.4byte	.LFB32
 3710 005c 80000000 		.4byte	.LFE32-.LFB32
 3711 0060 00000000 		.4byte	.LFB42
 3712 0064 40040000 		.4byte	.LFE42-.LFB42
 3713 0068 00000000 		.4byte	0
 3714 006c 00000000 		.4byte	0
 3715              		.section	.debug_ranges,"",%progbits
 3716              	.Ldebug_ranges0:
ARM GAS  C:\Users\User\AppData\Local\Temp\ccwxAVLH.s 			page 76


 3717 0000 00000000 		.4byte	.LFB35
 3718 0004 1C000000 		.4byte	.LFE35
 3719 0008 00000000 		.4byte	.LFB37
 3720 000c 40000000 		.4byte	.LFE37
 3721 0010 00000000 		.4byte	.LFB38
 3722 0014 4C000000 		.4byte	.LFE38
 3723 0018 00000000 		.4byte	.LFB39
 3724 001c 70000000 		.4byte	.LFE39
 3725 0020 00000000 		.4byte	.LFB40
 3726 0024 20000000 		.4byte	.LFE40
 3727 0028 00000000 		.4byte	.LFB41
 3728 002c 4C000000 		.4byte	.LFE41
 3729 0030 00000000 		.4byte	.LFB36
 3730 0034 58000000 		.4byte	.LFE36
 3731 0038 00000000 		.4byte	.LFB33
 3732 003c 40000000 		.4byte	.LFE33
 3733 0040 00000000 		.4byte	.LFB34
 3734 0044 48000000 		.4byte	.LFE34
 3735 0048 00000000 		.4byte	.LFB32
 3736 004c 80000000 		.4byte	.LFE32
 3737 0050 00000000 		.4byte	.LFB42
 3738 0054 40040000 		.4byte	.LFE42
 3739 0058 00000000 		.4byte	0
 3740 005c 00000000 		.4byte	0
 3741              		.section	.debug_line,"",%progbits
 3742              	.Ldebug_line0:
 3743 0000 54050000 		.section	.debug_str,"MS",%progbits,1
 3743      02007E01 
 3743      00000201 
 3743      FB0E0D00 
 3743      01010101 
 3744              	.LASF52:
 3745 0000 434F4C55 		.ascii	"COLUMN_Write\000"
 3745      4D4E5F57 
 3745      72697465 
 3745      00
 3746              	.LASF64:
 3747 000d 75706461 		.ascii	"updateTimer\000"
 3747      74655469 
 3747      6D657200 
 3748              	.LASF5:
 3749 0019 5F5F7569 		.ascii	"__uint8_t\000"
 3749      6E74385F 
 3749      7400
 3750              	.LASF40:
 3751 0023 696E7075 		.ascii	"input_index\000"
 3751      745F696E 
 3751      64657800 
 3752              	.LASF38:
 3753 002f 70617373 		.ascii	"password\000"
 3753      776F7264 
 3753      00
 3754              	.LASF61:
 3755 0038 474E5520 		.ascii	"GNU C11 5.4.1 20160609 (release) [ARM/embedded-5-br"
 3755      43313120 
 3755      352E342E 
 3755      31203230 
ARM GAS  C:\Users\User\AppData\Local\Temp\ccwxAVLH.s 			page 77


 3755      31363036 
 3756 006b 616E6368 		.ascii	"anch revision 237715] -mcpu=cortex-m0 -mthumb -g -O"
 3756      20726576 
 3756      6973696F 
 3756      6E203233 
 3756      37373135 
 3757 009e 67202D66 		.ascii	"g -ffunction-sections -ffat-lto-objects\000"
 3757      66756E63 
 3757      74696F6E 
 3757      2D736563 
 3757      74696F6E 
 3758              	.LASF9:
 3759 00c6 6C6F6E67 		.ascii	"long long unsigned int\000"
 3759      206C6F6E 
 3759      6720756E 
 3759      7369676E 
 3759      65642069 
 3760              	.LASF26:
 3761 00dd 64697370 		.ascii	"displayDigit\000"
 3761      6C617944 
 3761      69676974 
 3761      00
 3762              	.LASF8:
 3763 00ea 6C6F6E67 		.ascii	"long long int\000"
 3763      206C6F6E 
 3763      6720696E 
 3763      7400
 3764              	.LASF0:
 3765 00f8 7369676E 		.ascii	"signed char\000"
 3765      65642063 
 3765      68617200 
 3766              	.LASF29:
 3767 0104 64696769 		.ascii	"digit\000"
 3767      7400
 3768              	.LASF42:
 3769 010a 70617373 		.ascii	"password_verified\000"
 3769      776F7264 
 3769      5F766572 
 3769      69666965 
 3769      6400
 3770              	.LASF44:
 3771 011c 74696D65 		.ascii	"timer_seconds\000"
 3771      725F7365 
 3771      636F6E64 
 3771      7300
 3772              	.LASF43:
 3773 012a 74696D65 		.ascii	"timer_minutes\000"
 3773      725F6D69 
 3773      6E757465 
 3773      7300
 3774              	.LASF32:
 3775 0138 6D61696E 		.ascii	"main_counter\000"
 3775      5F636F75 
 3775      6E746572 
 3775      00
 3776              	.LASF4:
 3777 0145 6C6F6E67 		.ascii	"long int\000"
ARM GAS  C:\Users\User\AppData\Local\Temp\ccwxAVLH.s 			page 78


 3777      20696E74 
 3777      00
 3778              	.LASF55:
 3779 014e 50696E5F 		.ascii	"Pin_DO_Write\000"
 3779      444F5F57 
 3779      72697465 
 3779      00
 3780              	.LASF54:
 3781 015b 43794465 		.ascii	"CyDelayUs\000"
 3781      6C617955 
 3781      7300
 3782              	.LASF14:
 3783 0165 646F7562 		.ascii	"double\000"
 3783      6C6500
 3784              	.LASF45:
 3785 016c 74696D65 		.ascii	"timer_counter\000"
 3785      725F636F 
 3785      756E7465 
 3785      7200
 3786              	.LASF6:
 3787 017a 5F5F7569 		.ascii	"__uint32_t\000"
 3787      6E743332 
 3787      5F7400
 3788              	.LASF35:
 3789 0185 5345474D 		.ascii	"SEGMENT_CODES\000"
 3789      454E545F 
 3789      434F4445 
 3789      5300
 3790              	.LASF53:
 3791 0193 524F575F 		.ascii	"ROW_Read\000"
 3791      52656164 
 3791      00
 3792              	.LASF20:
 3793 019c 74656D70 		.ascii	"temp\000"
 3793      00
 3794              	.LASF30:
 3795 01a1 706F7369 		.ascii	"position_mask\000"
 3795      74696F6E 
 3795      5F6D6173 
 3795      6B00
 3796              	.LASF10:
 3797 01af 756E7369 		.ascii	"unsigned int\000"
 3797      676E6564 
 3797      20696E74 
 3797      00
 3798              	.LASF36:
 3799 01bc 64697370 		.ascii	"display_data\000"
 3799      6C61795F 
 3799      64617461 
 3799      00
 3800              	.LASF58:
 3801 01c9 54696D65 		.ascii	"Timer_Start\000"
 3801      725F5374 
 3801      61727400 
 3802              	.LASF28:
 3803 01d5 706F7369 		.ascii	"position\000"
 3803      74696F6E 
ARM GAS  C:\Users\User\AppData\Local\Temp\ccwxAVLH.s 			page 79


 3803      00
 3804              	.LASF7:
 3805 01de 6C6F6E67 		.ascii	"long unsigned int\000"
 3805      20756E73 
 3805      69676E65 
 3805      6420696E 
 3805      7400
 3806              	.LASF46:
 3807 01f0 74696D65 		.ascii	"timer_running\000"
 3807      725F7275 
 3807      6E6E696E 
 3807      6700
 3808              	.LASF48:
 3809 01fe 626C696E 		.ascii	"blink_counter\000"
 3809      6B5F636F 
 3809      756E7465 
 3809      7200
 3810              	.LASF22:
 3811 020c 73746172 		.ascii	"startTimer\000"
 3811      7454696D 
 3811      657200
 3812              	.LASF27:
 3813 0217 64617461 		.ascii	"data\000"
 3813      00
 3814              	.LASF41:
 3815 021c 70617373 		.ascii	"password_mode\000"
 3815      776F7264 
 3815      5F6D6F64 
 3815      6500
 3816              	.LASF3:
 3817 022a 73686F72 		.ascii	"short unsigned int\000"
 3817      7420756E 
 3817      7369676E 
 3817      65642069 
 3817      6E7400
 3818              	.LASF34:
 3819 023d 64656661 		.ascii	"default_data\000"
 3819      756C745F 
 3819      64617461 
 3819      00
 3820              	.LASF62:
 3821 024a 6D61696E 		.ascii	"main.c\000"
 3821      2E6300
 3822              	.LASF63:
 3823 0251 433A5C55 		.ascii	"C:\\Users\\User\\Documents\\PSoC Creator\\Lab\\Lab5"
 3823      73657273 
 3823      5C557365 
 3823      725C446F 
 3823      63756D65 
 3824 027e 50536F43 		.ascii	"PSoC1\\Design01.cydsn\000"
 3824      315C4465 
 3824      7369676E 
 3824      30312E63 
 3824      7964736E 
 3825              	.LASF25:
 3826 0293 73656E64 		.ascii	"sendDataSPI\000"
 3826      44617461 
ARM GAS  C:\Users\User\AppData\Local\Temp\ccwxAVLH.s 			page 80


 3826      53504900 
 3827              	.LASF17:
 3828 029f 73697A65 		.ascii	"sizetype\000"
 3828      74797065 
 3828      00
 3829              	.LASF16:
 3830 02a8 6C6F6E67 		.ascii	"long double\000"
 3830      20646F75 
 3830      626C6500 
 3831              	.LASF49:
 3832 02b4 626C696E 		.ascii	"blink_state\000"
 3832      6B5F7374 
 3832      61746500 
 3833              	.LASF50:
 3834 02c0 6B657973 		.ascii	"keys\000"
 3834      00
 3835              	.LASF23:
 3836 02c5 73746172 		.ascii	"startPasswordInput\000"
 3836      74506173 
 3836      73776F72 
 3836      64496E70 
 3836      757400
 3837              	.LASF13:
 3838 02d8 666C6F61 		.ascii	"float\000"
 3838      7400
 3839              	.LASF57:
 3840 02de 50696E5F 		.ascii	"Pin_Latch_Write\000"
 3840      4C617463 
 3840      685F5772 
 3840      69746500 
 3841              	.LASF31:
 3842 02ee 6C617374 		.ascii	"last_key_state\000"
 3842      5F6B6579 
 3842      5F737461 
 3842      746500
 3843              	.LASF1:
 3844 02fd 756E7369 		.ascii	"unsigned char\000"
 3844      676E6564 
 3844      20636861 
 3844      7200
 3845              	.LASF2:
 3846 030b 73686F72 		.ascii	"short int\000"
 3846      7420696E 
 3846      7400
 3847              	.LASF12:
 3848 0315 75696E74 		.ascii	"uint32_t\000"
 3848      33325F74 
 3848      00
 3849              	.LASF65:
 3850 031e 54696D65 		.ascii	"Timer_Display_Handler\000"
 3850      725F4469 
 3850      73706C61 
 3850      795F4861 
 3850      6E646C65 
 3851              	.LASF37:
 3852 0334 63757272 		.ascii	"current_digit\000"
 3852      656E745F 
ARM GAS  C:\Users\User\AppData\Local\Temp\ccwxAVLH.s 			page 81


 3852      64696769 
 3852      7400
 3853              	.LASF15:
 3854 0342 63686172 		.ascii	"char\000"
 3854      00
 3855              	.LASF56:
 3856 0347 50696E5F 		.ascii	"Pin_CLK_Write\000"
 3856      434C4B5F 
 3856      57726974 
 3856      6500
 3857              	.LASF19:
 3858 0355 73686966 		.ascii	"shiftRightLast4\000"
 3858      74526967 
 3858      68744C61 
 3858      73743400 
 3859              	.LASF59:
 3860 0365 54696D65 		.ascii	"Timer_Int_StartEx\000"
 3860      725F496E 
 3860      745F5374 
 3860      61727445 
 3860      7800
 3861              	.LASF67:
 3862 0377 6D656D63 		.ascii	"memcpy\000"
 3862      707900
 3863              	.LASF33:
 3864 037e 696E6469 		.ascii	"indication_timer\000"
 3864      63617469 
 3864      6F6E5F74 
 3864      696D6572 
 3864      00
 3865              	.LASF24:
 3866 038f 72656164 		.ascii	"readMatrix\000"
 3866      4D617472 
 3866      697800
 3867              	.LASF60:
 3868 039a 43794465 		.ascii	"CyDelay\000"
 3868      6C617900 
 3869              	.LASF47:
 3870 03a2 73686966 		.ascii	"shift_counter\000"
 3870      745F636F 
 3870      756E7465 
 3870      7200
 3871              	.LASF51:
 3872 03b0 434F4C55 		.ascii	"COLUMN_SetDriveMode\000"
 3872      4D4E5F53 
 3872      65744472 
 3872      6976654D 
 3872      6F646500 
 3873              	.LASF18:
 3874 03c4 696E6974 		.ascii	"initMatrix\000"
 3874      4D617472 
 3874      697800
 3875              	.LASF11:
 3876 03cf 75696E74 		.ascii	"uint8_t\000"
 3876      385F7400 
 3877              	.LASF39:
 3878 03d7 696E7075 		.ascii	"input_buffer\000"
ARM GAS  C:\Users\User\AppData\Local\Temp\ccwxAVLH.s 			page 82


 3878      745F6275 
 3878      66666572 
 3878      00
 3879              	.LASF21:
 3880 03e4 63686563 		.ascii	"checkPassword\000"
 3880      6B506173 
 3880      73776F72 
 3880      6400
 3881              	.LASF66:
 3882 03f2 6D61696E 		.ascii	"main\000"
 3882      00
 3883              		.ident	"GCC: (GNU Tools for ARM Embedded Processors) 5.4.1 20160609 (release) [ARM/embedded-5-bran
