ARM GAS  C:\Users\User\AppData\Local\Temp\ccwxAVLH.s 			page 1


   1              		.syntax unified
   2              		.cpu cortex-m0
   3              		.fpu softvfp
   4              		.eabi_attribute 20, 1
   5              		.eabi_attribute 21, 1
   6              		.eabi_attribute 23, 3
   7              		.eabi_attribute 24, 1
   8              		.eabi_attribute 25, 1
   9              		.eabi_attribute 26, 1
  10              		.eabi_attribute 30, 1
  11              		.eabi_attribute 34, 0
  12              		.eabi_attribute 18, 4
  13              		.thumb
  14              		.syntax unified
  15              		.file	"main.c"
  16              		.text
  17              	.Ltext0:
  18              		.cfi_sections	.debug_frame
  19              		.section	.text.initMatrix,"ax",%progbits
  20              		.align	2
  21              		.code	16
  22              		.thumb_func
  23              		.type	initMatrix, %function
  24              	initMatrix:
  25              	.LFB35:
  26              		.file 1 "main.c"
   1:main.c        **** #include "project.h"
   2:main.c        **** 
   3:main.c        **** // ą¤čĆąŠčéąŠčéąĖą┐ąĖ čäčāąĮą║čåč¢ą╣
   4:main.c        **** static void sendDataSPI(uint8_t data);
   5:main.c        **** static void displayDigit(uint8_t position, uint8_t digit);
   6:main.c        **** static void initMatrix(void);
   7:main.c        **** static void readMatrix(void);
   8:main.c        **** static void shiftRightLast4(void);
   9:main.c        **** static void checkPassword(void);
  10:main.c        **** static void updateTimer(void);
  11:main.c        **** static void startTimer(void);
  12:main.c        **** static void startPasswordInput(void);
  13:main.c        **** 
  14:main.c        **** // ąÜąŠą┤ąĖ ą┤ą╗čÅ 7-čüąĄą│ą╝ąĄąĮčéąĮąŠą│ąŠ č¢ąĮą┤ąĖą║ą░čéąŠčĆą░ (Common Anode)
  15:main.c        **** // 0-9, A-F, ą▓čüč¢ čāą▓č¢ą╝ą║ąĮąĄąĮč¢ (8.), ą▓čüč¢ ą▓ąĖą╝ą║ąĮąĄąĮč¢ ( )
  16:main.c        **** static uint8_t SEGMENT_CODES[] = {
  17:main.c        ****     0xC0, // 0
  18:main.c        ****     0xF9, // 1
  19:main.c        ****     0xA4, // 2
  20:main.c        ****     0xB0, // 3
  21:main.c        ****     0x99, // 4
  22:main.c        ****     0x92, // 5
  23:main.c        ****     0x82, // 6
  24:main.c        ****     0xF8, // 7
  25:main.c        ****     0x80, // 8
  26:main.c        ****     0x90, // 9
  27:main.c        ****     0x88, // A
  28:main.c        ****     0x83, // B
  29:main.c        ****     0xC6, // C
  30:main.c        ****     0xA1, // D
  31:main.c        ****     0x86, // E
ARM GAS  C:\Users\User\AppData\Local\Temp\ccwxAVLH.s 			page 2


  32:main.c        ****     0x8E, // F
  33:main.c        ****     0x00, // ąÆčüč¢ čāą▓č¢ą╝ą║ąĮąĄąĮč¢ (8.)
  34:main.c        ****     0xFF  // ąÆčüč¢ ą▓ąĖą╝ą║ąĮąĄąĮč¢ ( )
  35:main.c        **** };
  36:main.c        **** 
  37:main.c        **** // ąöą░ąĮč¢ ą┤ą╗čÅ ą▓č¢ą┤ąŠą▒čĆą░ąČąĄąĮąĮčÅ ąĮą░ 8 č¢ąĮą┤ąĖą║ą░čéąŠčĆą░čģ
  38:main.c        **** static uint8_t display_data[8] = {0, 0, 0, 0, 5, 4, 0, 0}; // ą¦ąĖčüą╗ąŠ 54
  39:main.c        **** 
  40:main.c        **** // ąŚą╝č¢ąĮąĮč¢ ą┤ą╗čÅ ą┤ąĖąĮą░ą╝č¢čćąĮąŠčŚ č¢ąĮą┤ąĖą║ą░čåč¢čŚ
  41:main.c        **** static uint8_t current_digit = 0;
  42:main.c        **** 
  43:main.c        **** // ąŚą╝č¢ąĮąĮč¢ ą┤ą╗čÅ ą┐ą░čĆąŠą╗čÄ
  44:main.c        **** static uint8_t password[4] = {1, 2, 3, 4}; // ą¤ą░čĆąŠą╗čī: 1234
  45:main.c        **** static uint8_t input_buffer[4] = {0};
  46:main.c        **** static uint8_t input_index = 0;
  47:main.c        **** static uint8_t password_mode = 0;
  48:main.c        **** static uint8_t password_verified = 0;
  49:main.c        **** 
  50:main.c        **** // ąŚą╝č¢ąĮąĮč¢ ą┤ą╗čÅ čéą░ą╣ą╝ąĄčĆą░
  51:main.c        **** static uint8_t timer_minutes = 5;
  52:main.c        **** static uint8_t timer_seconds = 0;
  53:main.c        **** static uint32_t timer_counter = 0;
  54:main.c        **** static uint8_t timer_running = 0;
  55:main.c        **** 
  56:main.c        **** // ąŚą╝č¢ąĮąĮč¢ ą┤ą╗čÅ ą░ąĮč¢ą╝ą░čåč¢čŚ
  57:main.c        **** static uint32_t shift_counter = 0;
  58:main.c        **** static uint32_t blink_counter = 0;
  59:main.c        **** static uint8_t blink_state = 0;
  60:main.c        **** 
  61:main.c        **** // ą£ą░čéčĆąĖčåčÅ ą║ą╗ą░ą▓č¢ą░čéčāčĆąĖ
  62:main.c        **** static uint8_t keys[4][3] = {
  63:main.c        ****     {1, 2, 3},
  64:main.c        ****     {4, 5, 6}, 
  65:main.c        ****     {7, 8, 9},
  66:main.c        ****     {10, 0, 11} // * = 10, 0, # = 11
  67:main.c        **** };
  68:main.c        **** 
  69:main.c        **** // ążčāąĮą║čåč¢čŚ ą┤ą╗čÅ čĆąŠą▒ąŠčéąĖ ąĘ čüčéąŠą▓ą┐čåčÅą╝ąĖ
  70:main.c        **** static void (*COLUMN_SetDriveMode[3])(uint8_t mode) = {
  71:main.c        ****     COLUMN_0_SetDriveMode,
  72:main.c        ****     COLUMN_1_SetDriveMode, 
  73:main.c        ****     COLUMN_2_SetDriveMode
  74:main.c        **** };
  75:main.c        **** 
  76:main.c        **** static void (*COLUMN_Write[3])(uint8_t value) = {
  77:main.c        ****     COLUMN_0_Write,
  78:main.c        ****     COLUMN_1_Write,
  79:main.c        ****     COLUMN_2_Write
  80:main.c        **** };
  81:main.c        **** 
  82:main.c        **** // ążčāąĮą║čåč¢čŚ ą┤ą╗čÅ čćąĖčéą░ąĮąĮčÅ čĆčÅą┤ą║č¢ą▓
  83:main.c        **** static uint8_t (*ROW_Read[4])() = {
  84:main.c        ****     ROW_0_Read,
  85:main.c        ****     ROW_1_Read,
  86:main.c        ****     ROW_2_Read, 
  87:main.c        ****     ROW_3_Read
  88:main.c        **** };
ARM GAS  C:\Users\User\AppData\Local\Temp\ccwxAVLH.s 			page 3


  89:main.c        **** 
  90:main.c        **** // ą×ą▒čĆąŠą▒ąĮąĖą║ ą┐ąĄčĆąĄčĆąĖą▓ą░ąĮąĮčÅ čéą░ą╣ą╝ąĄčĆą░ ą┤ą╗čÅ ą┤ąĖąĮą░ą╝č¢čćąĮąŠčŚ č¢ąĮą┤ąĖą║ą░č
  91:main.c        **** CY_ISR(Timer_Display_Handler)
  92:main.c        **** {
  93:main.c        ****     if (password_verified == 0) {
  94:main.c        ****         // ąŚą▓ąĖčćą░ą╣ąĮąĖą╣ čĆąĄąČąĖą╝
  95:main.c        ****         displayDigit(current_digit, display_data[current_digit]);
  96:main.c        ****     }
  97:main.c        ****     else if (password_verified == 1) {
  98:main.c        ****         // ąÆč¢čĆąĮąĖą╣ ą┐ą░čĆąŠą╗čī - ą╝ąĖą│ą░ąĮąĮčÅ ą▓čüč¢čģ čüąĄą│ą╝ąĄąĮčéč¢ą▓
  99:main.c        ****         displayDigit(current_digit, blink_state ? 16 : 17);
 100:main.c        ****     }
 101:main.c        ****     else if (password_verified == 2) {
 102:main.c        ****         // ąØąĄą▓č¢čĆąĮąĖą╣ ą┐ą░čĆąŠą╗čī - čłą░čģąŠą▓ąĄ ą╝ąĖą│ą░ąĮąĮčÅ
 103:main.c        ****         if ((current_digit % 2 == 0 && blink_state) || (current_digit % 2 == 1 && !blink_state)) {
 104:main.c        ****             displayDigit(current_digit, 16);
 105:main.c        ****         } else {
 106:main.c        ****             displayDigit(current_digit, 17);
 107:main.c        ****         }
 108:main.c        ****     }
 109:main.c        ****     
 110:main.c        ****     current_digit++;
 111:main.c        ****     if (current_digit >= 8) current_digit = 0;
 112:main.c        **** }
 113:main.c        **** 
 114:main.c        **** // ążčāąĮą║čåč¢čÅ ą┐ąĄčĆąĄą┤ą░čćč¢ ą┤ą░ąĮąĖčģ ą┐ąŠ SPI
 115:main.c        **** static void sendDataSPI(uint8_t data)
 116:main.c        **** {
 117:main.c        ****     for (uint8_t i = 0; i < 8; i++) {
 118:main.c        ****         if (data & (0x80 >> i)) {
 119:main.c        ****             Pin_DO_Write(1);
 120:main.c        ****         } else {
 121:main.c        ****             Pin_DO_Write(0);
 122:main.c        ****         }
 123:main.c        ****         Pin_CLK_Write(1);
 124:main.c        ****         CyDelayUs(1);
 125:main.c        ****         Pin_CLK_Write(0);
 126:main.c        ****         CyDelayUs(1);
 127:main.c        ****     }
 128:main.c        **** }
 129:main.c        **** 
 130:main.c        **** // ążčāąĮą║čåč¢čÅ ą▓č¢ą┤ąŠą▒čĆą░ąČąĄąĮąĮčÅ ąŠą┤ąĮąŠą│ąŠ čĆąŠąĘčĆčÅą┤čā
 131:main.c        **** static void displayDigit(uint8_t position, uint8_t digit)
 132:main.c        **** {
 133:main.c        ****     // ąÆąĖą▒č¢čĆ ą┐ąŠąĘąĖčåč¢čŚ (ą░ąĮąŠą┤)
 134:main.c        ****     uint8_t position_mask = 0xFF & ~(1 << position);
 135:main.c        ****     sendDataSPI(position_mask);
 136:main.c        ****     
 137:main.c        ****     // ąÆąĖą▒č¢čĆ čüąĄą│ą╝ąĄąĮčéč¢ą▓ (ą║ą░čéąŠą┤)
 138:main.c        ****     if (digit < 18) {
 139:main.c        ****         sendDataSPI(SEGMENT_CODES[digit]);
 140:main.c        ****     } else {
 141:main.c        ****         sendDataSPI(0xFF); // ąÆąĖą╝ą║ąĮąĄąĮąŠ
 142:main.c        ****     }
 143:main.c        ****     
 144:main.c        ****     // ąŚą░čäč¢ą║čüčāą▓ą░čéąĖ ą┤ą░ąĮč¢
 145:main.c        ****     Pin_Latch_Write(1);
ARM GAS  C:\Users\User\AppData\Local\Temp\ccwxAVLH.s 			page 4


 146:main.c        ****     CyDelayUs(1);
 147:main.c        ****     Pin_Latch_Write(0);
 148:main.c        ****     CyDelayUs(1);
 149:main.c        **** }
 150:main.c        **** 
 151:main.c        **** // ąåąĮč¢čåč¢ą░ą╗č¢ąĘą░čåč¢čÅ ą╝ą░čéčĆąĖčåč¢ ą║ą╗ą░ą▓č¢čł
 152:main.c        **** static void initMatrix(void)
 153:main.c        **** {
  27              		.loc 1 153 0
  28              		.cfi_startproc
  29              		@ args = 0, pretend = 0, frame = 0
  30              		@ frame_needed = 0, uses_anonymous_args = 0
  31 0000 10B5     		push	{r4, lr}
  32              		.cfi_def_cfa_offset 8
  33              		.cfi_offset 4, -8
  34              		.cfi_offset 14, -4
  35              	.LVL0:
  36              	.LBB2:
 154:main.c        ****     for (int i = 0; i < 3; i++) {
  37              		.loc 1 154 0
  38 0002 0024     		movs	r4, #0
  39 0004 05E0     		b	.L2
  40              	.LVL1:
  41              	.L3:
 155:main.c        ****         COLUMN_SetDriveMode[i](COLUMN_0_DM_DIG_HIZ);
  42              		.loc 1 155 0 discriminator 3
  43 0006 A200     		lsls	r2, r4, #2
  44 0008 034B     		ldr	r3, .L4
  45 000a D358     		ldr	r3, [r2, r3]
  46 000c 0120     		movs	r0, #1
  47 000e 9847     		blx	r3
  48              	.LVL2:
 154:main.c        ****     for (int i = 0; i < 3; i++) {
  49              		.loc 1 154 0 discriminator 3
  50 0010 0134     		adds	r4, r4, #1
  51              	.LVL3:
  52              	.L2:
 154:main.c        ****     for (int i = 0; i < 3; i++) {
  53              		.loc 1 154 0 is_stmt 0 discriminator 1
  54 0012 022C     		cmp	r4, #2
  55 0014 F7DD     		ble	.L3
  56              	.LBE2:
 156:main.c        ****     }
 157:main.c        **** }
  57              		.loc 1 157 0 is_stmt 1
  58              		@ sp needed
  59              	.LVL4:
  60 0016 10BD     		pop	{r4, pc}
  61              	.L5:
  62              		.align	2
  63              	.L4:
  64 0018 00000000 		.word	.LANCHOR0
  65              		.cfi_endproc
  66              	.LFE35:
  67              		.size	initMatrix, .-initMatrix
  68              		.section	.text.shiftRightLast4,"ax",%progbits
  69              		.align	2
ARM GAS  C:\Users\User\AppData\Local\Temp\ccwxAVLH.s 			page 5


  70              		.code	16
  71              		.thumb_func
  72              		.type	shiftRightLast4, %function
  73              	shiftRightLast4:
  74              	.LFB37:
 158:main.c        **** 
 159:main.c        **** // ą¦ąĖčéą░ąĮąĮčÅ čüčéą░ąĮčā ą╝ą░čéčĆąĖčåč¢ ą║ą╗ą░ą▓č¢čł
 160:main.c        **** static void readMatrix(void)
 161:main.c        **** {
 162:main.c        ****     for (int col = 0; col < 3; col++) {
 163:main.c        ****         // ąÉą║čéąĖą▓čāą▓ą░čéąĖ čüčéąŠą▓ą┐ąĄčåčī
 164:main.c        ****         COLUMN_SetDriveMode[col](COLUMN_0_DM_STRONG);
 165:main.c        ****         COLUMN_Write[col](0);
 166:main.c        ****         CyDelayUs(10);
 167:main.c        ****         
 168:main.c        ****         // ą¤čĆąŠčćąĖčéą░čéąĖ čĆčÅą┤ą║ąĖ
 169:main.c        ****         for (int row = 0; row < 4; row++) {
 170:main.c        ****             keys[row][col] = ROW_Read[row]();
 171:main.c        ****         }
 172:main.c        ****         
 173:main.c        ****         // ąöąĄą░ą║čéąĖą▓čāą▓ą░čéąĖ čüčéąŠą▓ą┐ąĄčåčī
 174:main.c        ****         COLUMN_SetDriveMode[col](COLUMN_0_DM_DIG_HIZ);
 175:main.c        ****     }
 176:main.c        **** }
 177:main.c        **** 
 178:main.c        **** // ą”ąĖą║ą╗č¢čćąĮąĖą╣ ąĘčüčāą▓ ąŠčüčéą░ąĮąĮč¢čģ 4 čåąĖčäčĆ ą▓ą┐čĆą░ą▓ąŠ (ą▓ą░čĆč¢ą░ąĮčé 5)
 179:main.c        **** static void shiftRightLast4(void)
 180:main.c        **** {
  75              		.loc 1 180 0
  76              		.cfi_startproc
  77              		@ args = 0, pretend = 0, frame = 0
  78              		@ frame_needed = 0, uses_anonymous_args = 0
  79 0000 10B5     		push	{r4, lr}
  80              		.cfi_def_cfa_offset 8
  81              		.cfi_offset 4, -8
  82              		.cfi_offset 14, -4
 181:main.c        ****     if (password_mode || password_verified || timer_running) return;
  83              		.loc 1 181 0
  84 0002 0D4B     		ldr	r3, .L10
  85 0004 1B78     		ldrb	r3, [r3]
  86 0006 002B     		cmp	r3, #0
  87 0008 14D1     		bne	.L6
  88              		.loc 1 181 0 is_stmt 0 discriminator 1
  89 000a 0B4B     		ldr	r3, .L10
  90 000c 5B78     		ldrb	r3, [r3, #1]
  91 000e 002B     		cmp	r3, #0
  92 0010 10D1     		bne	.L6
  93              		.loc 1 181 0 discriminator 2
  94 0012 094B     		ldr	r3, .L10
  95 0014 9B78     		ldrb	r3, [r3, #2]
  96 0016 002B     		cmp	r3, #0
  97 0018 0CD1     		bne	.L6
 182:main.c        ****     
 183:main.c        ****     uint8_t temp = display_data[7];
  98              		.loc 1 183 0 is_stmt 1
  99 001a 084B     		ldr	r3, .L10+4
 100 001c DC79     		ldrb	r4, [r3, #7]
ARM GAS  C:\Users\User\AppData\Local\Temp\ccwxAVLH.s 			page 6


 101              	.LVL5:
 102              	.LBB3:
 184:main.c        ****     for (int i = 7; i > 4; i--) {
 103              		.loc 1 184 0
 104 001e 0723     		movs	r3, #7
 105 0020 04E0     		b	.L8
 106              	.LVL6:
 107              	.L9:
 185:main.c        ****         display_data[i] = display_data[i-1];
 108              		.loc 1 185 0 discriminator 3
 109 0022 5A1E     		subs	r2, r3, #1
 110 0024 0549     		ldr	r1, .L10+4
 111 0026 885C     		ldrb	r0, [r1, r2]
 112 0028 C854     		strb	r0, [r1, r3]
 113              	.LVL7:
 184:main.c        ****     for (int i = 7; i > 4; i--) {
 114              		.loc 1 184 0 discriminator 3
 115 002a 1300     		movs	r3, r2
 116              	.LVL8:
 117              	.L8:
 184:main.c        ****     for (int i = 7; i > 4; i--) {
 118              		.loc 1 184 0 is_stmt 0 discriminator 1
 119 002c 042B     		cmp	r3, #4
 120 002e F8DC     		bgt	.L9
 121              	.LBE3:
 186:main.c        ****     }
 187:main.c        ****     display_data[4] = temp;
 122              		.loc 1 187 0 is_stmt 1
 123 0030 024B     		ldr	r3, .L10+4
 124              	.LVL9:
 125 0032 1C71     		strb	r4, [r3, #4]
 126              	.LVL10:
 127              	.L6:
 188:main.c        **** }
 128              		.loc 1 188 0
 129              		@ sp needed
 130 0034 10BD     		pop	{r4, pc}
 131              	.L11:
 132 0036 C046     		.align	2
 133              	.L10:
 134 0038 00000000 		.word	.LANCHOR1
 135 003c 00000000 		.word	.LANCHOR2
 136              		.cfi_endproc
 137              	.LFE37:
 138              		.size	shiftRightLast4, .-shiftRightLast4
 139              		.section	.text.checkPassword,"ax",%progbits
 140              		.align	2
 141              		.code	16
 142              		.thumb_func
 143              		.type	checkPassword, %function
 144              	checkPassword:
 145              	.LFB38:
 189:main.c        **** 
 190:main.c        **** // ą¤ąĄčĆąĄą▓č¢čĆą║ą░ ą┐ą░čĆąŠą╗čÄ
 191:main.c        **** static void checkPassword(void)
 192:main.c        **** {
 146              		.loc 1 192 0
ARM GAS  C:\Users\User\AppData\Local\Temp\ccwxAVLH.s 			page 7


 147              		.cfi_startproc
 148              		@ args = 0, pretend = 0, frame = 0
 149              		@ frame_needed = 0, uses_anonymous_args = 0
 150              		@ link register save eliminated.
 193:main.c        ****     password_verified = 1; // ą¤čĆąĖą┐čāčüą║ą░čöą╝ąŠ ą▓č¢čĆąĮąĖą╣ ą┐ą░čĆąŠą╗čī
 151              		.loc 1 193 0
 152 0000 0122     		movs	r2, #1
 153 0002 104B     		ldr	r3, .L19
 154 0004 5A70     		strb	r2, [r3, #1]
 155              	.LVL11:
 156              	.LBB4:
 194:main.c        ****     
 195:main.c        ****     for (int i = 0; i < 4; i++) {
 157              		.loc 1 195 0
 158 0006 0023     		movs	r3, #0
 159 0008 0DE0     		b	.L13
 160              	.LVL12:
 161              	.L16:
 196:main.c        ****         if (input_buffer[i] != password[i]) {
 162              		.loc 1 196 0
 163 000a 0E4A     		ldr	r2, .L19
 164 000c D218     		adds	r2, r2, r3
 165 000e 1179     		ldrb	r1, [r2, #4]
 166 0010 0D4A     		ldr	r2, .L19+4
 167 0012 D218     		adds	r2, r2, r3
 168 0014 127B     		ldrb	r2, [r2, #12]
 169 0016 9142     		cmp	r1, r2
 170 0018 04D0     		beq	.L14
 197:main.c        ****             password_verified = 2; // ąØąĄą▓č¢čĆąĮąĖą╣ ą┐ą░čĆąŠą╗čī
 171              		.loc 1 197 0
 172 001a 0222     		movs	r2, #2
 173 001c 094B     		ldr	r3, .L19
 174              	.LVL13:
 175 001e 5A70     		strb	r2, [r3, #1]
 176              	.L17:
 195:main.c        ****         if (input_buffer[i] != password[i]) {
 177              		.loc 1 195 0 discriminator 1
 178 0020 0023     		movs	r3, #0
 179 0022 08E0     		b	.L15
 180              	.LVL14:
 181              	.L14:
 195:main.c        ****         if (input_buffer[i] != password[i]) {
 182              		.loc 1 195 0 is_stmt 0 discriminator 2
 183 0024 0133     		adds	r3, r3, #1
 184              	.LVL15:
 185              	.L13:
 195:main.c        ****         if (input_buffer[i] != password[i]) {
 186              		.loc 1 195 0 discriminator 1
 187 0026 032B     		cmp	r3, #3
 188 0028 EFDD     		ble	.L16
 189 002a F9E7     		b	.L17
 190              	.LVL16:
 191              	.L18:
 192              	.LBE4:
 193              	.LBB5:
 198:main.c        ****             break;
 199:main.c        ****         }
ARM GAS  C:\Users\User\AppData\Local\Temp\ccwxAVLH.s 			page 8


 200:main.c        ****     }
 201:main.c        ****     
 202:main.c        ****     // ą×čćąĖčüčéąĖčéąĖ ą▒čāčäąĄčĆ
 203:main.c        ****     for (int i = 0; i < 4; i++) {
 204:main.c        ****         input_buffer[i] = 0;
 194              		.loc 1 204 0 is_stmt 1 discriminator 3
 195 002c 054A     		ldr	r2, .L19
 196 002e D218     		adds	r2, r2, r3
 197 0030 0021     		movs	r1, #0
 198 0032 1171     		strb	r1, [r2, #4]
 203:main.c        ****         input_buffer[i] = 0;
 199              		.loc 1 203 0 discriminator 3
 200 0034 0133     		adds	r3, r3, #1
 201              	.LVL17:
 202              	.L15:
 203:main.c        ****         input_buffer[i] = 0;
 203              		.loc 1 203 0 is_stmt 0 discriminator 1
 204 0036 032B     		cmp	r3, #3
 205 0038 F8DD     		ble	.L18
 206              	.LBE5:
 205:main.c        ****     }
 206:main.c        ****     input_index = 0;
 207              		.loc 1 206 0 is_stmt 1
 208 003a 024B     		ldr	r3, .L19
 209              	.LVL18:
 210 003c 0022     		movs	r2, #0
 211 003e 1A72     		strb	r2, [r3, #8]
 207:main.c        ****     password_mode = 0;
 212              		.loc 1 207 0
 213 0040 1A70     		strb	r2, [r3]
 208:main.c        **** }
 214              		.loc 1 208 0
 215              		@ sp needed
 216 0042 7047     		bx	lr
 217              	.L20:
 218              		.align	2
 219              	.L19:
 220 0044 00000000 		.word	.LANCHOR1
 221 0048 00000000 		.word	.LANCHOR0
 222              		.cfi_endproc
 223              	.LFE38:
 224              		.size	checkPassword, .-checkPassword
 225              		.global	__aeabi_uidiv
 226              		.global	__aeabi_uidivmod
 227              		.section	.text.updateTimer,"ax",%progbits
 228              		.align	2
 229              		.code	16
 230              		.thumb_func
 231              		.type	updateTimer, %function
 232              	updateTimer:
 233              	.LFB39:
 209:main.c        **** 
 210:main.c        **** // ą×ąĮąŠą▓ą╗ąĄąĮąĮčÅ čéą░ą╣ą╝ąĄčĆą░
 211:main.c        **** static void updateTimer(void)
 212:main.c        **** {
 234              		.loc 1 212 0
 235              		.cfi_startproc
ARM GAS  C:\Users\User\AppData\Local\Temp\ccwxAVLH.s 			page 9


 236              		@ args = 0, pretend = 0, frame = 0
 237              		@ frame_needed = 0, uses_anonymous_args = 0
 238 0000 70B5     		push	{r4, r5, r6, lr}
 239              		.cfi_def_cfa_offset 16
 240              		.cfi_offset 4, -16
 241              		.cfi_offset 5, -12
 242              		.cfi_offset 6, -8
 243              		.cfi_offset 14, -4
 213:main.c        ****     if (!timer_running) return;
 244              		.loc 1 213 0
 245 0002 194B     		ldr	r3, .L26
 246 0004 9B78     		ldrb	r3, [r3, #2]
 247 0006 002B     		cmp	r3, #0
 248 0008 2DD0     		beq	.L21
 214:main.c        ****     
 215:main.c        ****     if (timer_seconds == 0) {
 249              		.loc 1 215 0
 250 000a 174B     		ldr	r3, .L26
 251 000c 5B7A     		ldrb	r3, [r3, #9]
 252 000e 002B     		cmp	r3, #0
 253 0010 0ED1     		bne	.L23
 216:main.c        ****         if (timer_minutes == 0) {
 254              		.loc 1 216 0
 255 0012 164B     		ldr	r3, .L26+4
 256 0014 1B7A     		ldrb	r3, [r3, #8]
 257 0016 002B     		cmp	r3, #0
 258 0018 03D1     		bne	.L24
 217:main.c        ****             timer_running = 0;
 259              		.loc 1 217 0
 260 001a 0022     		movs	r2, #0
 261 001c 124B     		ldr	r3, .L26
 262 001e 9A70     		strb	r2, [r3, #2]
 218:main.c        ****             return;
 263              		.loc 1 218 0
 264 0020 21E0     		b	.L21
 265              	.L24:
 219:main.c        ****         }
 220:main.c        ****         timer_minutes--;
 266              		.loc 1 220 0
 267 0022 013B     		subs	r3, r3, #1
 268 0024 114A     		ldr	r2, .L26+4
 269 0026 1372     		strb	r3, [r2, #8]
 221:main.c        ****         timer_seconds = 59;
 270              		.loc 1 221 0
 271 0028 3B22     		movs	r2, #59
 272 002a 0F4B     		ldr	r3, .L26
 273 002c 5A72     		strb	r2, [r3, #9]
 274 002e 02E0     		b	.L25
 275              	.L23:
 222:main.c        ****     } else {
 223:main.c        ****         timer_seconds--;
 276              		.loc 1 223 0
 277 0030 013B     		subs	r3, r3, #1
 278 0032 0D4A     		ldr	r2, .L26
 279 0034 5372     		strb	r3, [r2, #9]
 280              	.L25:
 224:main.c        ****     }
ARM GAS  C:\Users\User\AppData\Local\Temp\ccwxAVLH.s 			page 10


 225:main.c        ****     
 226:main.c        ****     // ą×ąĮąŠą▓ąĖčéąĖ ą▓č¢ą┤ąŠą▒čĆą░ąČąĄąĮąĮčÅ
 227:main.c        ****     display_data[0] = timer_minutes / 10;
 281              		.loc 1 227 0
 282 0036 0D4C     		ldr	r4, .L26+4
 283 0038 257A     		ldrb	r5, [r4, #8]
 284 003a 0A21     		movs	r1, #10
 285 003c 2800     		movs	r0, r5
 286 003e FFF7FEFF 		bl	__aeabi_uidiv
 287              	.LVL19:
 288 0042 2070     		strb	r0, [r4]
 228:main.c        ****     display_data[1] = timer_minutes % 10;
 289              		.loc 1 228 0
 290 0044 0A21     		movs	r1, #10
 291 0046 2800     		movs	r0, r5
 292 0048 FFF7FEFF 		bl	__aeabi_uidivmod
 293              	.LVL20:
 294 004c 6170     		strb	r1, [r4, #1]
 229:main.c        ****     display_data[2] = timer_seconds / 10;
 295              		.loc 1 229 0
 296 004e 064B     		ldr	r3, .L26
 297 0050 5D7A     		ldrb	r5, [r3, #9]
 298 0052 0A21     		movs	r1, #10
 299 0054 2800     		movs	r0, r5
 300 0056 FFF7FEFF 		bl	__aeabi_uidiv
 301              	.LVL21:
 302 005a A070     		strb	r0, [r4, #2]
 230:main.c        ****     display_data[3] = timer_seconds % 10;
 303              		.loc 1 230 0
 304 005c 0A21     		movs	r1, #10
 305 005e 2800     		movs	r0, r5
 306 0060 FFF7FEFF 		bl	__aeabi_uidivmod
 307              	.LVL22:
 308 0064 E170     		strb	r1, [r4, #3]
 309              	.L21:
 231:main.c        **** }
 310              		.loc 1 231 0
 311              		@ sp needed
 312 0066 70BD     		pop	{r4, r5, r6, pc}
 313              	.L27:
 314              		.align	2
 315              	.L26:
 316 0068 00000000 		.word	.LANCHOR1
 317 006c 00000000 		.word	.LANCHOR2
 318              		.cfi_endproc
 319              	.LFE39:
 320              		.size	updateTimer, .-updateTimer
 321              		.section	.text.startTimer,"ax",%progbits
 322              		.align	2
 323              		.code	16
 324              		.thumb_func
 325              		.type	startTimer, %function
 326              	startTimer:
 327              	.LFB40:
 232:main.c        **** 
 233:main.c        **** // ąŚą░ą┐čāčüą║ čéą░ą╣ą╝ąĄčĆą░
 234:main.c        **** static void startTimer(void)
ARM GAS  C:\Users\User\AppData\Local\Temp\ccwxAVLH.s 			page 11


 235:main.c        **** {
 328              		.loc 1 235 0
 329              		.cfi_startproc
 330              		@ args = 0, pretend = 0, frame = 0
 331              		@ frame_needed = 0, uses_anonymous_args = 0
 332 0000 10B5     		push	{r4, lr}
 333              		.cfi_def_cfa_offset 8
 334              		.cfi_offset 4, -8
 335              		.cfi_offset 14, -4
 236:main.c        ****     timer_running = 1;
 336              		.loc 1 236 0
 337 0002 054B     		ldr	r3, .L29
 338 0004 0122     		movs	r2, #1
 339 0006 9A70     		strb	r2, [r3, #2]
 237:main.c        ****     timer_minutes = 5;
 340              		.loc 1 237 0
 341 0008 0521     		movs	r1, #5
 342 000a 044A     		ldr	r2, .L29+4
 343 000c 1172     		strb	r1, [r2, #8]
 238:main.c        ****     timer_seconds = 0;
 344              		.loc 1 238 0
 345 000e 0022     		movs	r2, #0
 346 0010 5A72     		strb	r2, [r3, #9]
 239:main.c        ****     updateTimer();
 347              		.loc 1 239 0
 348 0012 FFF7FEFF 		bl	updateTimer
 349              	.LVL23:
 240:main.c        **** }
 350              		.loc 1 240 0
 351              		@ sp needed
 352 0016 10BD     		pop	{r4, pc}
 353              	.L30:
 354              		.align	2
 355              	.L29:
 356 0018 00000000 		.word	.LANCHOR1
 357 001c 00000000 		.word	.LANCHOR2
 358              		.cfi_endproc
 359              	.LFE40:
 360              		.size	startTimer, .-startTimer
 361              		.section	.text.startPasswordInput,"ax",%progbits
 362              		.align	2
 363              		.code	16
 364              		.thumb_func
 365              		.type	startPasswordInput, %function
 366              	startPasswordInput:
 367              	.LFB41:
 241:main.c        **** 
 242:main.c        **** // ą¤ąŠčćą░čéąŠą║ ą▓ą▓ąŠą┤čā ą┐ą░čĆąŠą╗čÄ
 243:main.c        **** static void startPasswordInput(void)
 244:main.c        **** {
 368              		.loc 1 244 0
 369              		.cfi_startproc
 370              		@ args = 0, pretend = 0, frame = 0
 371              		@ frame_needed = 0, uses_anonymous_args = 0
 372              		@ link register save eliminated.
 245:main.c        ****     password_mode = 1;
 373              		.loc 1 245 0
ARM GAS  C:\Users\User\AppData\Local\Temp\ccwxAVLH.s 			page 12


 374 0000 104B     		ldr	r3, .L38
 375 0002 0122     		movs	r2, #1
 376 0004 1A70     		strb	r2, [r3]
 246:main.c        ****     password_verified = 0;
 377              		.loc 1 246 0
 378 0006 0022     		movs	r2, #0
 379 0008 5A70     		strb	r2, [r3, #1]
 380              	.LVL24:
 381              	.LBB6:
 247:main.c        ****     
 248:main.c        ****     // ą×čćąĖčüčéąĖčéąĖ ą▒čāčäąĄčĆ
 249:main.c        ****     for (int i = 0; i < 4; i++) {
 382              		.loc 1 249 0
 383 000a 0023     		movs	r3, #0
 384 000c 04E0     		b	.L32
 385              	.LVL25:
 386              	.L33:
 250:main.c        ****         input_buffer[i] = 0;
 387              		.loc 1 250 0 discriminator 3
 388 000e 0D4A     		ldr	r2, .L38
 389 0010 D218     		adds	r2, r2, r3
 390 0012 0021     		movs	r1, #0
 391 0014 1171     		strb	r1, [r2, #4]
 249:main.c        ****         input_buffer[i] = 0;
 392              		.loc 1 249 0 discriminator 3
 393 0016 0133     		adds	r3, r3, #1
 394              	.LVL26:
 395              	.L32:
 249:main.c        ****         input_buffer[i] = 0;
 396              		.loc 1 249 0 is_stmt 0 discriminator 1
 397 0018 032B     		cmp	r3, #3
 398 001a F8DD     		ble	.L33
 399              	.LBE6:
 251:main.c        ****     }
 252:main.c        ****     input_index = 0;
 400              		.loc 1 252 0 is_stmt 1
 401 001c 0022     		movs	r2, #0
 402 001e 094B     		ldr	r3, .L38
 403              	.LVL27:
 404 0020 1A72     		strb	r2, [r3, #8]
 405              	.LVL28:
 406              	.LBB7:
 253:main.c        ****     
 254:main.c        ****     // ąÆč¢ą┤ąŠą▒čĆą░ąĘąĖčéąĖ č¢ąĮą┤ąĖą║ą░čåč¢čÄ ą▓ą▓ąŠą┤čā ą┐ą░čĆąŠą╗čÄ
 255:main.c        ****     for (int i = 0; i < 4; i++) {
 407              		.loc 1 255 0
 408 0022 0023     		movs	r3, #0
 409 0024 03E0     		b	.L34
 410              	.LVL29:
 411              	.L35:
 256:main.c        ****         display_data[i] = 15; // 'F'
 412              		.loc 1 256 0 discriminator 3
 413 0026 0F21     		movs	r1, #15
 414 0028 074A     		ldr	r2, .L38+4
 415 002a D154     		strb	r1, [r2, r3]
 255:main.c        ****         display_data[i] = 15; // 'F'
 416              		.loc 1 255 0 discriminator 3
ARM GAS  C:\Users\User\AppData\Local\Temp\ccwxAVLH.s 			page 13


 417 002c 0133     		adds	r3, r3, #1
 418              	.LVL30:
 419              	.L34:
 255:main.c        ****         display_data[i] = 15; // 'F'
 420              		.loc 1 255 0 is_stmt 0 discriminator 1
 421 002e 032B     		cmp	r3, #3
 422 0030 F9DD     		ble	.L35
 423 0032 0423     		movs	r3, #4
 424              	.LVL31:
 425 0034 03E0     		b	.L36
 426              	.LVL32:
 427              	.L37:
 428              	.LBE7:
 429              	.LBB8:
 257:main.c        ****     }
 258:main.c        ****     for (int i = 4; i < 8; i++) {
 259:main.c        ****         display_data[i] = 17; // ą¤ąŠčĆąŠąČąĮčīąŠ
 430              		.loc 1 259 0 is_stmt 1 discriminator 3
 431 0036 1121     		movs	r1, #17
 432 0038 034A     		ldr	r2, .L38+4
 433 003a D154     		strb	r1, [r2, r3]
 258:main.c        ****         display_data[i] = 17; // ą¤ąŠčĆąŠąČąĮčīąŠ
 434              		.loc 1 258 0 discriminator 3
 435 003c 0133     		adds	r3, r3, #1
 436              	.LVL33:
 437              	.L36:
 258:main.c        ****         display_data[i] = 17; // ą¤ąŠčĆąŠąČąĮčīąŠ
 438              		.loc 1 258 0 is_stmt 0 discriminator 1
 439 003e 072B     		cmp	r3, #7
 440 0040 F9DD     		ble	.L37
 441              	.LBE8:
 260:main.c        ****     }
 261:main.c        **** }
 442              		.loc 1 261 0 is_stmt 1
 443              		@ sp needed
 444 0042 7047     		bx	lr
 445              	.L39:
 446              		.align	2
 447              	.L38:
 448 0044 00000000 		.word	.LANCHOR1
 449 0048 00000000 		.word	.LANCHOR2
 450              		.cfi_endproc
 451              	.LFE41:
 452              		.size	startPasswordInput, .-startPasswordInput
 453              		.section	.text.readMatrix,"ax",%progbits
 454              		.align	2
 455              		.code	16
 456              		.thumb_func
 457              		.type	readMatrix, %function
 458              	readMatrix:
 459              	.LFB36:
 161:main.c        ****     for (int col = 0; col < 3; col++) {
 460              		.loc 1 161 0
 461              		.cfi_startproc
 462              		@ args = 0, pretend = 0, frame = 0
 463              		@ frame_needed = 0, uses_anonymous_args = 0
 464 0000 70B5     		push	{r4, r5, r6, lr}
ARM GAS  C:\Users\User\AppData\Local\Temp\ccwxAVLH.s 			page 14


 465              		.cfi_def_cfa_offset 16
 466              		.cfi_offset 4, -16
 467              		.cfi_offset 5, -12
 468              		.cfi_offset 6, -8
 469              		.cfi_offset 14, -4
 470              	.LVL34:
 471              	.LBB9:
 162:main.c        ****         // ąÉą║čéąĖą▓čāą▓ą░čéąĖ čüčéąŠą▓ą┐ąĄčåčī
 472              		.loc 1 162 0
 473 0002 0025     		movs	r5, #0
 474 0004 21E0     		b	.L41
 475              	.LVL35:
 476              	.L44:
 164:main.c        ****         COLUMN_Write[col](0);
 477              		.loc 1 164 0
 478 0006 124E     		ldr	r6, .L45
 479 0008 AC00     		lsls	r4, r5, #2
 480 000a 0620     		movs	r0, #6
 481 000c A359     		ldr	r3, [r4, r6]
 482 000e 9847     		blx	r3
 483              	.LVL36:
 165:main.c        ****         CyDelayUs(10);
 484              		.loc 1 165 0
 485 0010 3419     		adds	r4, r6, r4
 486 0012 2369     		ldr	r3, [r4, #16]
 487 0014 0020     		movs	r0, #0
 488 0016 9847     		blx	r3
 489              	.LVL37:
 166:main.c        ****         
 490              		.loc 1 166 0
 491 0018 0A20     		movs	r0, #10
 492 001a FFF7FEFF 		bl	CyDelayUs
 493              	.LVL38:
 494              	.LBB10:
 169:main.c        ****             keys[row][col] = ROW_Read[row]();
 495              		.loc 1 169 0
 496 001e 0024     		movs	r4, #0
 497 0020 0BE0     		b	.L42
 498              	.LVL39:
 499              	.L43:
 170:main.c        ****         }
 500              		.loc 1 170 0 discriminator 3
 501 0022 A300     		lsls	r3, r4, #2
 502 0024 0A4A     		ldr	r2, .L45
 503 0026 D318     		adds	r3, r2, r3
 504 0028 DB69     		ldr	r3, [r3, #28]
 505 002a 9847     		blx	r3
 506              	.LVL40:
 507 002c 6300     		lsls	r3, r4, #1
 508 002e 1B19     		adds	r3, r3, r4
 509 0030 084A     		ldr	r2, .L45+4
 510 0032 D318     		adds	r3, r2, r3
 511 0034 5B19     		adds	r3, r3, r5
 512 0036 1873     		strb	r0, [r3, #12]
 169:main.c        ****             keys[row][col] = ROW_Read[row]();
 513              		.loc 1 169 0 discriminator 3
 514 0038 0134     		adds	r4, r4, #1
ARM GAS  C:\Users\User\AppData\Local\Temp\ccwxAVLH.s 			page 15


 515              	.LVL41:
 516              	.L42:
 169:main.c        ****             keys[row][col] = ROW_Read[row]();
 517              		.loc 1 169 0 is_stmt 0 discriminator 1
 518 003a 032C     		cmp	r4, #3
 519 003c F1DD     		ble	.L43
 520              	.LBE10:
 174:main.c        ****     }
 521              		.loc 1 174 0 is_stmt 1 discriminator 2
 522 003e AA00     		lsls	r2, r5, #2
 523 0040 034B     		ldr	r3, .L45
 524 0042 D358     		ldr	r3, [r2, r3]
 525 0044 0120     		movs	r0, #1
 526 0046 9847     		blx	r3
 527              	.LVL42:
 162:main.c        ****         // ąÉą║čéąĖą▓čāą▓ą░čéąĖ čüčéąŠą▓ą┐ąĄčåčī
 528              		.loc 1 162 0 discriminator 2
 529 0048 0135     		adds	r5, r5, #1
 530              	.LVL43:
 531              	.L41:
 162:main.c        ****         // ąÉą║čéąĖą▓čāą▓ą░čéąĖ čüčéąŠą▓ą┐ąĄčåčī
 532              		.loc 1 162 0 is_stmt 0 discriminator 1
 533 004a 022D     		cmp	r5, #2
 534 004c DBDD     		ble	.L44
 535              	.LBE9:
 176:main.c        **** 
 536              		.loc 1 176 0 is_stmt 1
 537              		@ sp needed
 538              	.LVL44:
 539 004e 70BD     		pop	{r4, r5, r6, pc}
 540              	.L46:
 541              		.align	2
 542              	.L45:
 543 0050 00000000 		.word	.LANCHOR0
 544 0054 00000000 		.word	.LANCHOR2
 545              		.cfi_endproc
 546              	.LFE36:
 547              		.size	readMatrix, .-readMatrix
 548              		.section	.text.sendDataSPI,"ax",%progbits
 549              		.align	2
 550              		.code	16
 551              		.thumb_func
 552              		.type	sendDataSPI, %function
 553              	sendDataSPI:
 554              	.LFB33:
 116:main.c        ****     for (uint8_t i = 0; i < 8; i++) {
 555              		.loc 1 116 0
 556              		.cfi_startproc
 557              		@ args = 0, pretend = 0, frame = 0
 558              		@ frame_needed = 0, uses_anonymous_args = 0
 559              	.LVL45:
 560 0000 70B5     		push	{r4, r5, r6, lr}
 561              		.cfi_def_cfa_offset 16
 562              		.cfi_offset 4, -16
 563              		.cfi_offset 5, -12
 564              		.cfi_offset 6, -8
 565              		.cfi_offset 14, -4
ARM GAS  C:\Users\User\AppData\Local\Temp\ccwxAVLH.s 			page 16


 566 0002 0500     		movs	r5, r0
 567              	.LVL46:
 568              	.LBB11:
 117:main.c        ****         if (data & (0x80 >> i)) {
 569              		.loc 1 117 0
 570 0004 0024     		movs	r4, #0
 571 0006 18E0     		b	.L48
 572              	.LVL47:
 573              	.L51:
 118:main.c        ****             Pin_DO_Write(1);
 574              		.loc 1 118 0
 575 0008 8023     		movs	r3, #128
 576 000a 2341     		asrs	r3, r3, r4
 577 000c 2B42     		tst	r3, r5
 578 000e 03D0     		beq	.L49
 119:main.c        ****         } else {
 579              		.loc 1 119 0
 580 0010 0120     		movs	r0, #1
 581 0012 FFF7FEFF 		bl	Pin_DO_Write
 582              	.LVL48:
 583 0016 02E0     		b	.L50
 584              	.L49:
 121:main.c        ****         }
 585              		.loc 1 121 0
 586 0018 0020     		movs	r0, #0
 587 001a FFF7FEFF 		bl	Pin_DO_Write
 588              	.LVL49:
 589              	.L50:
 123:main.c        ****         CyDelayUs(1);
 590              		.loc 1 123 0 discriminator 2
 591 001e 0120     		movs	r0, #1
 592 0020 FFF7FEFF 		bl	Pin_CLK_Write
 593              	.LVL50:
 124:main.c        ****         Pin_CLK_Write(0);
 594              		.loc 1 124 0 discriminator 2
 595 0024 0120     		movs	r0, #1
 596 0026 FFF7FEFF 		bl	CyDelayUs
 597              	.LVL51:
 125:main.c        ****         CyDelayUs(1);
 598              		.loc 1 125 0 discriminator 2
 599 002a 0020     		movs	r0, #0
 600 002c FFF7FEFF 		bl	Pin_CLK_Write
 601              	.LVL52:
 126:main.c        ****     }
 602              		.loc 1 126 0 discriminator 2
 603 0030 0120     		movs	r0, #1
 604 0032 FFF7FEFF 		bl	CyDelayUs
 605              	.LVL53:
 117:main.c        ****         if (data & (0x80 >> i)) {
 606              		.loc 1 117 0 discriminator 2
 607 0036 0134     		adds	r4, r4, #1
 608              	.LVL54:
 609 0038 E4B2     		uxtb	r4, r4
 610              	.LVL55:
 611              	.L48:
 117:main.c        ****         if (data & (0x80 >> i)) {
 612              		.loc 1 117 0 is_stmt 0 discriminator 1
ARM GAS  C:\Users\User\AppData\Local\Temp\ccwxAVLH.s 			page 17


 613 003a 072C     		cmp	r4, #7
 614 003c E4D9     		bls	.L51
 615              	.LBE11:
 128:main.c        **** 
 616              		.loc 1 128 0 is_stmt 1
 617              		@ sp needed
 618              	.LVL56:
 619 003e 70BD     		pop	{r4, r5, r6, pc}
 620              		.cfi_endproc
 621              	.LFE33:
 622              		.size	sendDataSPI, .-sendDataSPI
 623              		.section	.text.displayDigit,"ax",%progbits
 624              		.align	2
 625              		.code	16
 626              		.thumb_func
 627              		.type	displayDigit, %function
 628              	displayDigit:
 629              	.LFB34:
 132:main.c        ****     // ąÆąĖą▒č¢čĆ ą┐ąŠąĘąĖčåč¢čŚ (ą░ąĮąŠą┤)
 630              		.loc 1 132 0
 631              		.cfi_startproc
 632              		@ args = 0, pretend = 0, frame = 0
 633              		@ frame_needed = 0, uses_anonymous_args = 0
 634              	.LVL57:
 635 0000 10B5     		push	{r4, lr}
 636              		.cfi_def_cfa_offset 8
 637              		.cfi_offset 4, -8
 638              		.cfi_offset 14, -4
 639 0002 0300     		movs	r3, r0
 640 0004 0C00     		movs	r4, r1
 134:main.c        ****     sendDataSPI(position_mask);
 641              		.loc 1 134 0
 642 0006 0120     		movs	r0, #1
 643              	.LVL58:
 644 0008 9840     		lsls	r0, r0, r3
 645 000a C043     		mvns	r0, r0
 646 000c C0B2     		uxtb	r0, r0
 647              	.LVL59:
 135:main.c        ****     
 648              		.loc 1 135 0
 649 000e FFF7FEFF 		bl	sendDataSPI
 650              	.LVL60:
 138:main.c        ****         sendDataSPI(SEGMENT_CODES[digit]);
 651              		.loc 1 138 0
 652 0012 112C     		cmp	r4, #17
 653 0014 06D8     		bhi	.L53
 139:main.c        ****     } else {
 654              		.loc 1 139 0
 655 0016 0B4B     		ldr	r3, .L55
 656 0018 1C19     		adds	r4, r3, r4
 657 001a 2C23     		movs	r3, #44
 658 001c E05C     		ldrb	r0, [r4, r3]
 659 001e FFF7FEFF 		bl	sendDataSPI
 660              	.LVL61:
 661 0022 02E0     		b	.L54
 662              	.L53:
 141:main.c        ****     }
ARM GAS  C:\Users\User\AppData\Local\Temp\ccwxAVLH.s 			page 18


 663              		.loc 1 141 0
 664 0024 FF20     		movs	r0, #255
 665 0026 FFF7FEFF 		bl	sendDataSPI
 666              	.LVL62:
 667              	.L54:
 145:main.c        ****     CyDelayUs(1);
 668              		.loc 1 145 0
 669 002a 0120     		movs	r0, #1
 670 002c FFF7FEFF 		bl	Pin_Latch_Write
 671              	.LVL63:
 146:main.c        ****     Pin_Latch_Write(0);
 672              		.loc 1 146 0
 673 0030 0120     		movs	r0, #1
 674 0032 FFF7FEFF 		bl	CyDelayUs
 675              	.LVL64:
 147:main.c        ****     CyDelayUs(1);
 676              		.loc 1 147 0
 677 0036 0020     		movs	r0, #0
 678 0038 FFF7FEFF 		bl	Pin_Latch_Write
 679              	.LVL65:
 148:main.c        **** }
 680              		.loc 1 148 0
 681 003c 0120     		movs	r0, #1
 682 003e FFF7FEFF 		bl	CyDelayUs
 683              	.LVL66:
 149:main.c        **** 
 684              		.loc 1 149 0
 685              		@ sp needed
 686 0042 10BD     		pop	{r4, pc}
 687              	.L56:
 688              		.align	2
 689              	.L55:
 690 0044 00000000 		.word	.LANCHOR0
 691              		.cfi_endproc
 692              	.LFE34:
 693              		.size	displayDigit, .-displayDigit
 694              		.section	.text.Timer_Display_Handler,"ax",%progbits
 695              		.align	2
 696              		.global	Timer_Display_Handler
 697              		.code	16
 698              		.thumb_func
 699              		.type	Timer_Display_Handler, %function
 700              	Timer_Display_Handler:
 701              	.LFB32:
  92:main.c        ****     if (password_verified == 0) {
 702              		.loc 1 92 0
 703              		.cfi_startproc
 704              		@ args = 0, pretend = 0, frame = 0
 705              		@ frame_needed = 0, uses_anonymous_args = 0
 706 0000 10B5     		push	{r4, lr}
 707              		.cfi_def_cfa_offset 8
 708              		.cfi_offset 4, -8
 709              		.cfi_offset 14, -4
  93:main.c        ****         // ąŚą▓ąĖčćą░ą╣ąĮąĖą╣ čĆąĄąČąĖą╝
 710              		.loc 1 93 0
 711 0002 1D4B     		ldr	r3, .L67
 712 0004 5B78     		ldrb	r3, [r3, #1]
ARM GAS  C:\Users\User\AppData\Local\Temp\ccwxAVLH.s 			page 19


 713 0006 002B     		cmp	r3, #0
 714 0008 06D1     		bne	.L58
  95:main.c        ****     }
 715              		.loc 1 95 0
 716 000a 1B4B     		ldr	r3, .L67
 717 000c 987A     		ldrb	r0, [r3, #10]
 718 000e 1B4B     		ldr	r3, .L67+4
 719 0010 195C     		ldrb	r1, [r3, r0]
 720 0012 FFF7FEFF 		bl	displayDigit
 721              	.LVL67:
 722 0016 24E0     		b	.L59
 723              	.L58:
  97:main.c        ****         // ąÆč¢čĆąĮąĖą╣ ą┐ą░čĆąŠą╗čī - ą╝ąĖą│ą░ąĮąĮčÅ ą▓čüč¢čģ čüąĄą│ą╝ąĄąĮčéč¢ą▓
 724              		.loc 1 97 0
 725 0018 012B     		cmp	r3, #1
 726 001a 0AD1     		bne	.L60
  99:main.c        ****     }
 727              		.loc 1 99 0
 728 001c 164B     		ldr	r3, .L67
 729 001e 987A     		ldrb	r0, [r3, #10]
 730 0020 DB7A     		ldrb	r3, [r3, #11]
 731 0022 002B     		cmp	r3, #0
 732 0024 01D0     		beq	.L66
 733 0026 1021     		movs	r1, #16
 734 0028 00E0     		b	.L61
 735              	.L66:
 736 002a 1121     		movs	r1, #17
 737              	.L61:
  99:main.c        ****     }
 738              		.loc 1 99 0 is_stmt 0 discriminator 4
 739 002c FFF7FEFF 		bl	displayDigit
 740              	.LVL68:
 741 0030 17E0     		b	.L59
 742              	.L60:
 101:main.c        ****         // ąØąĄą▓č¢čĆąĮąĖą╣ ą┐ą░čĆąŠą╗čī - čłą░čģąŠą▓ąĄ ą╝ąĖą│ą░ąĮąĮčÅ
 743              		.loc 1 101 0 is_stmt 1
 744 0032 022B     		cmp	r3, #2
 745 0034 15D1     		bne	.L59
 103:main.c        ****             displayDigit(current_digit, 16);
 746              		.loc 1 103 0
 747 0036 104B     		ldr	r3, .L67
 748 0038 987A     		ldrb	r0, [r3, #10]
 749 003a 0123     		movs	r3, #1
 750 003c 0340     		ands	r3, r0
 751 003e 03D1     		bne	.L62
 103:main.c        ****             displayDigit(current_digit, 16);
 752              		.loc 1 103 0 is_stmt 0 discriminator 1
 753 0040 0D4A     		ldr	r2, .L67
 754 0042 D27A     		ldrb	r2, [r2, #11]
 755 0044 002A     		cmp	r2, #0
 756 0046 05D1     		bne	.L63
 757              	.L62:
 103:main.c        ****             displayDigit(current_digit, 16);
 758              		.loc 1 103 0 discriminator 3
 759 0048 002B     		cmp	r3, #0
 760 004a 07D0     		beq	.L64
 103:main.c        ****             displayDigit(current_digit, 16);
ARM GAS  C:\Users\User\AppData\Local\Temp\ccwxAVLH.s 			page 20


 761              		.loc 1 103 0 discriminator 4
 762 004c 0A4B     		ldr	r3, .L67
 763 004e DB7A     		ldrb	r3, [r3, #11]
 764 0050 002B     		cmp	r3, #0
 765 0052 03D1     		bne	.L64
 766              	.L63:
 104:main.c        ****         } else {
 767              		.loc 1 104 0 is_stmt 1
 768 0054 1021     		movs	r1, #16
 769 0056 FFF7FEFF 		bl	displayDigit
 770              	.LVL69:
 771 005a 02E0     		b	.L59
 772              	.L64:
 106:main.c        ****         }
 773              		.loc 1 106 0
 774 005c 1121     		movs	r1, #17
 775 005e FFF7FEFF 		bl	displayDigit
 776              	.LVL70:
 777              	.L59:
 110:main.c        ****     if (current_digit >= 8) current_digit = 0;
 778              		.loc 1 110 0
 779 0062 054A     		ldr	r2, .L67
 780 0064 937A     		ldrb	r3, [r2, #10]
 781 0066 0133     		adds	r3, r3, #1
 782 0068 DBB2     		uxtb	r3, r3
 783 006a 9372     		strb	r3, [r2, #10]
 111:main.c        **** }
 784              		.loc 1 111 0
 785 006c 072B     		cmp	r3, #7
 786 006e 02D9     		bls	.L57
 111:main.c        **** }
 787              		.loc 1 111 0 is_stmt 0 discriminator 1
 788 0070 0022     		movs	r2, #0
 789 0072 014B     		ldr	r3, .L67
 790 0074 9A72     		strb	r2, [r3, #10]
 791              	.L57:
 112:main.c        **** 
 792              		.loc 1 112 0 is_stmt 1
 793              		@ sp needed
 794 0076 10BD     		pop	{r4, pc}
 795              	.L68:
 796              		.align	2
 797              	.L67:
 798 0078 00000000 		.word	.LANCHOR1
 799 007c 00000000 		.word	.LANCHOR2
 800              		.cfi_endproc
 801              	.LFE32:
 802              		.size	Timer_Display_Handler, .-Timer_Display_Handler
 803              		.section	.text.main,"ax",%progbits
 804              		.align	2
 805              		.global	main
 806              		.code	16
 807              		.thumb_func
 808              		.type	main, %function
 809              	main:
 810              	.LFB42:
 262:main.c        **** 
ARM GAS  C:\Users\User\AppData\Local\Temp\ccwxAVLH.s 			page 21


 263:main.c        **** int main(void)
 264:main.c        **** {
 811              		.loc 1 264 0
 812              		.cfi_startproc
 813              		@ args = 0, pretend = 0, frame = 8
 814              		@ frame_needed = 0, uses_anonymous_args = 0
 815 0000 30B5     		push	{r4, r5, lr}
 816              		.cfi_def_cfa_offset 12
 817              		.cfi_offset 4, -12
 818              		.cfi_offset 5, -8
 819              		.cfi_offset 14, -4
 820 0002 83B0     		sub	sp, sp, #12
 821              		.cfi_def_cfa_offset 24
 265:main.c        ****     CyGlobalIntEnable;
 822              		.loc 1 265 0
 823              		.syntax divided
 824              	@ 265 "main.c" 1
 825 0004 62B6     		CPSIE   i
 826              	@ 0 "" 2
 266:main.c        ****     
 267:main.c        ****     // ąåąĮč¢čåč¢ą░ą╗č¢ąĘą░čåč¢čÅ čéą░ą╣ą╝ąĄčĆą░ ą┤ą╗čÅ ą┤ąĖąĮą░ą╝č¢čćąĮąŠčŚ č¢ąĮą┤ąĖą║ą░čåč¢čŚ
 268:main.c        ****     Timer_Start();
 827              		.loc 1 268 0
 828              		.thumb
 829              		.syntax unified
 830 0006 FFF7FEFF 		bl	Timer_Start
 831              	.LVL71:
 269:main.c        ****     Timer_Int_StartEx(Timer_Display_Handler);
 832              		.loc 1 269 0
 833 000a 4648     		ldr	r0, .L125
 834 000c FFF7FEFF 		bl	Timer_Int_StartEx
 835              	.LVL72:
 270:main.c        ****     
 271:main.c        ****     initMatrix();
 836              		.loc 1 271 0
 837 0010 FFF7FEFF 		bl	initMatrix
 838              	.LVL73:
 272:main.c        ****     
 273:main.c        ****     uint8_t last_key_state = 12;
 274:main.c        ****     uint32_t main_counter = 0;
 839              		.loc 1 274 0
 840 0014 0025     		movs	r5, #0
 273:main.c        ****     uint32_t main_counter = 0;
 841              		.loc 1 273 0
 842 0016 0C24     		movs	r4, #12
 843              	.LVL74:
 844              	.L111:
 275:main.c        ****     
 276:main.c        ****     for (;;) {
 277:main.c        ****         readMatrix();
 845              		.loc 1 277 0
 846 0018 FFF7FEFF 		bl	readMatrix
 847              	.LVL75:
 278:main.c        ****         
 279:main.c        ****         // ą×ą▒čĆąŠą▒ą║ą░ ąĮą░čéąĖčüą║ą░ąĮčī ą║ą╗ą░ą▓č¢čł
 280:main.c        ****         if (!password_mode && !password_verified) {
 848              		.loc 1 280 0
ARM GAS  C:\Users\User\AppData\Local\Temp\ccwxAVLH.s 			page 22


 849 001c 424B     		ldr	r3, .L125+4
 850 001e 1B78     		ldrb	r3, [r3]
 851 0020 002B     		cmp	r3, #0
 852 0022 00D0     		beq	.LCB770
 853 0024 84E0     		b	.L70	@long jump
 854              	.LCB770:
 855              		.loc 1 280 0 is_stmt 0 discriminator 1
 856 0026 404A     		ldr	r2, .L125+4
 857 0028 5278     		ldrb	r2, [r2, #1]
 858 002a 002A     		cmp	r2, #0
 859 002c 00D0     		beq	.LCB774
 860 002e 7FE0     		b	.L70	@long jump
 861              	.LCB774:
 281:main.c        ****             // ąŚą▓ąĖčćą░ą╣ąĮąĖą╣ čĆąĄąČąĖą╝
 282:main.c        ****             if (keys[0][0] == 0 && last_key_state != 1) {
 862              		.loc 1 282 0 is_stmt 1
 863 0030 3E4B     		ldr	r3, .L125+8
 864 0032 1B7B     		ldrb	r3, [r3, #12]
 865 0034 002B     		cmp	r3, #0
 866 0036 05D1     		bne	.L71
 867              		.loc 1 282 0 is_stmt 0 discriminator 1
 868 0038 012C     		cmp	r4, #1
 869 003a 03D0     		beq	.L71
 870              	.LVL76:
 283:main.c        ****                 last_key_state = 1;
 284:main.c        ****                 display_data[0] = 1;
 871              		.loc 1 284 0 is_stmt 1
 872 003c 0132     		adds	r2, r2, #1
 873 003e 3B4B     		ldr	r3, .L125+8
 874 0040 1A70     		strb	r2, [r3]
 283:main.c        ****                 last_key_state = 1;
 875              		.loc 1 283 0
 876 0042 0124     		movs	r4, #1
 877              	.LVL77:
 878              	.L71:
 285:main.c        ****             }
 286:main.c        ****             if (keys[0][1] == 0 && last_key_state != 2) {
 879              		.loc 1 286 0
 880 0044 394B     		ldr	r3, .L125+8
 881 0046 5B7B     		ldrb	r3, [r3, #13]
 882 0048 002B     		cmp	r3, #0
 883 004a 05D1     		bne	.L72
 884              		.loc 1 286 0 is_stmt 0 discriminator 1
 885 004c 022C     		cmp	r4, #2
 886 004e 03D0     		beq	.L72
 887              	.LVL78:
 287:main.c        ****                 last_key_state = 2;
 288:main.c        ****                 display_data[0] = 2;
 888              		.loc 1 288 0 is_stmt 1
 889 0050 0222     		movs	r2, #2
 890 0052 364B     		ldr	r3, .L125+8
 891 0054 1A70     		strb	r2, [r3]
 287:main.c        ****                 last_key_state = 2;
 892              		.loc 1 287 0
 893 0056 0224     		movs	r4, #2
 894              	.LVL79:
 895              	.L72:
ARM GAS  C:\Users\User\AppData\Local\Temp\ccwxAVLH.s 			page 23


 289:main.c        ****             }
 290:main.c        ****             if (keys[0][2] == 0 && last_key_state != 3) {
 896              		.loc 1 290 0
 897 0058 344B     		ldr	r3, .L125+8
 898 005a 9B7B     		ldrb	r3, [r3, #14]
 899 005c 002B     		cmp	r3, #0
 900 005e 05D1     		bne	.L73
 901              		.loc 1 290 0 is_stmt 0 discriminator 1
 902 0060 032C     		cmp	r4, #3
 903 0062 03D0     		beq	.L73
 904              	.LVL80:
 291:main.c        ****                 last_key_state = 3;
 292:main.c        ****                 display_data[0] = 3;
 905              		.loc 1 292 0 is_stmt 1
 906 0064 0322     		movs	r2, #3
 907 0066 314B     		ldr	r3, .L125+8
 908 0068 1A70     		strb	r2, [r3]
 291:main.c        ****                 last_key_state = 3;
 909              		.loc 1 291 0
 910 006a 0324     		movs	r4, #3
 911              	.LVL81:
 912              	.L73:
 293:main.c        ****             }
 294:main.c        ****             if (keys[1][0] == 0 && last_key_state != 4) {
 913              		.loc 1 294 0
 914 006c 2F4B     		ldr	r3, .L125+8
 915 006e DB7B     		ldrb	r3, [r3, #15]
 916 0070 002B     		cmp	r3, #0
 917 0072 05D1     		bne	.L74
 918              		.loc 1 294 0 is_stmt 0 discriminator 1
 919 0074 042C     		cmp	r4, #4
 920 0076 03D0     		beq	.L74
 921              	.LVL82:
 295:main.c        ****                 last_key_state = 4;
 296:main.c        ****                 display_data[0] = 4;
 922              		.loc 1 296 0 is_stmt 1
 923 0078 0422     		movs	r2, #4
 924 007a 2C4B     		ldr	r3, .L125+8
 925 007c 1A70     		strb	r2, [r3]
 295:main.c        ****                 last_key_state = 4;
 926              		.loc 1 295 0
 927 007e 0424     		movs	r4, #4
 928              	.LVL83:
 929              	.L74:
 297:main.c        ****             }
 298:main.c        ****             if (keys[1][1] == 0 && last_key_state != 5) {
 930              		.loc 1 298 0
 931 0080 2A4B     		ldr	r3, .L125+8
 932 0082 1B7C     		ldrb	r3, [r3, #16]
 933 0084 002B     		cmp	r3, #0
 934 0086 05D1     		bne	.L75
 935              		.loc 1 298 0 is_stmt 0 discriminator 1
 936 0088 052C     		cmp	r4, #5
 937 008a 03D0     		beq	.L75
 938              	.LVL84:
 299:main.c        ****                 last_key_state = 5;
 300:main.c        ****                 display_data[0] = 5;
ARM GAS  C:\Users\User\AppData\Local\Temp\ccwxAVLH.s 			page 24


 939              		.loc 1 300 0 is_stmt 1
 940 008c 0522     		movs	r2, #5
 941 008e 274B     		ldr	r3, .L125+8
 942 0090 1A70     		strb	r2, [r3]
 299:main.c        ****                 last_key_state = 5;
 943              		.loc 1 299 0
 944 0092 0524     		movs	r4, #5
 945              	.LVL85:
 946              	.L75:
 301:main.c        ****             }
 302:main.c        ****             if (keys[1][2] == 0 && last_key_state != 6) {
 947              		.loc 1 302 0
 948 0094 254B     		ldr	r3, .L125+8
 949 0096 5B7C     		ldrb	r3, [r3, #17]
 950 0098 002B     		cmp	r3, #0
 951 009a 05D1     		bne	.L76
 952              		.loc 1 302 0 is_stmt 0 discriminator 1
 953 009c 062C     		cmp	r4, #6
 954 009e 03D0     		beq	.L76
 955              	.LVL86:
 303:main.c        ****                 last_key_state = 6;
 304:main.c        ****                 display_data[0] = 6;
 956              		.loc 1 304 0 is_stmt 1
 957 00a0 0622     		movs	r2, #6
 958 00a2 224B     		ldr	r3, .L125+8
 959 00a4 1A70     		strb	r2, [r3]
 303:main.c        ****                 last_key_state = 6;
 960              		.loc 1 303 0
 961 00a6 0624     		movs	r4, #6
 962              	.LVL87:
 963              	.L76:
 305:main.c        ****             }
 306:main.c        ****             if (keys[2][0] == 0 && last_key_state != 7) {
 964              		.loc 1 306 0
 965 00a8 204B     		ldr	r3, .L125+8
 966 00aa 9B7C     		ldrb	r3, [r3, #18]
 967 00ac 002B     		cmp	r3, #0
 968 00ae 05D1     		bne	.L77
 969              		.loc 1 306 0 is_stmt 0 discriminator 1
 970 00b0 072C     		cmp	r4, #7
 971 00b2 03D0     		beq	.L77
 972              	.LVL88:
 307:main.c        ****                 last_key_state = 7;
 308:main.c        ****                 display_data[0] = 7;
 973              		.loc 1 308 0 is_stmt 1
 974 00b4 0722     		movs	r2, #7
 975 00b6 1D4B     		ldr	r3, .L125+8
 976 00b8 1A70     		strb	r2, [r3]
 307:main.c        ****                 last_key_state = 7;
 977              		.loc 1 307 0
 978 00ba 0724     		movs	r4, #7
 979              	.LVL89:
 980              	.L77:
 309:main.c        ****             }
 310:main.c        ****             if (keys[2][1] == 0 && last_key_state != 8) {
 981              		.loc 1 310 0
 982 00bc 1B4B     		ldr	r3, .L125+8
ARM GAS  C:\Users\User\AppData\Local\Temp\ccwxAVLH.s 			page 25


 983 00be DB7C     		ldrb	r3, [r3, #19]
 984 00c0 002B     		cmp	r3, #0
 985 00c2 05D1     		bne	.L78
 986              		.loc 1 310 0 is_stmt 0 discriminator 1
 987 00c4 082C     		cmp	r4, #8
 988 00c6 03D0     		beq	.L78
 989              	.LVL90:
 311:main.c        ****                 last_key_state = 8;
 312:main.c        ****                 display_data[0] = 8;
 990              		.loc 1 312 0 is_stmt 1
 991 00c8 0822     		movs	r2, #8
 992 00ca 184B     		ldr	r3, .L125+8
 993 00cc 1A70     		strb	r2, [r3]
 311:main.c        ****                 last_key_state = 8;
 994              		.loc 1 311 0
 995 00ce 0824     		movs	r4, #8
 996              	.LVL91:
 997              	.L78:
 313:main.c        ****             }
 314:main.c        ****             if (keys[2][2] == 0 && last_key_state != 9) {
 998              		.loc 1 314 0
 999 00d0 164B     		ldr	r3, .L125+8
 1000 00d2 1B7D     		ldrb	r3, [r3, #20]
 1001 00d4 002B     		cmp	r3, #0
 1002 00d6 05D1     		bne	.L79
 1003              		.loc 1 314 0 is_stmt 0 discriminator 1
 1004 00d8 092C     		cmp	r4, #9
 1005 00da 03D0     		beq	.L79
 1006              	.LVL92:
 315:main.c        ****                 last_key_state = 9;
 316:main.c        ****                 display_data[0] = 9;
 1007              		.loc 1 316 0 is_stmt 1
 1008 00dc 0922     		movs	r2, #9
 1009 00de 134B     		ldr	r3, .L125+8
 1010 00e0 1A70     		strb	r2, [r3]
 315:main.c        ****                 last_key_state = 9;
 1011              		.loc 1 315 0
 1012 00e2 0924     		movs	r4, #9
 1013              	.LVL93:
 1014              	.L79:
 317:main.c        ****             }
 318:main.c        ****             if (keys[3][1] == 0 && last_key_state != 0) {
 1015              		.loc 1 318 0
 1016 00e4 114B     		ldr	r3, .L125+8
 1017 00e6 9B7D     		ldrb	r3, [r3, #22]
 1018 00e8 002B     		cmp	r3, #0
 1019 00ea 05D1     		bne	.L80
 1020              		.loc 1 318 0 is_stmt 0 discriminator 1
 1021 00ec 002C     		cmp	r4, #0
 1022 00ee 03D0     		beq	.L80
 1023              	.LVL94:
 319:main.c        ****                 last_key_state = 0;
 320:main.c        ****                 display_data[0] = 0;
 1024              		.loc 1 320 0 is_stmt 1
 1025 00f0 0022     		movs	r2, #0
 1026 00f2 0E4B     		ldr	r3, .L125+8
 1027 00f4 1A70     		strb	r2, [r3]
ARM GAS  C:\Users\User\AppData\Local\Temp\ccwxAVLH.s 			page 26


 319:main.c        ****                 last_key_state = 0;
 1028              		.loc 1 319 0
 1029 00f6 0024     		movs	r4, #0
 1030              	.LVL95:
 1031              	.L80:
 321:main.c        ****             }
 322:main.c        ****             
 323:main.c        ****             // ąÜąĮąŠą┐ą║ą░ * - ąĘą░ą┐čāčüą║ čéą░ą╣ą╝ąĄčĆą░
 324:main.c        ****             if (keys[3][0] == 0 && last_key_state != 10) {
 1032              		.loc 1 324 0
 1033 00f8 0C4B     		ldr	r3, .L125+8
 1034 00fa 5B7D     		ldrb	r3, [r3, #21]
 1035 00fc 002B     		cmp	r3, #0
 1036 00fe 04D1     		bne	.L81
 1037              		.loc 1 324 0 is_stmt 0 discriminator 1
 1038 0100 0A2C     		cmp	r4, #10
 1039 0102 02D0     		beq	.L81
 1040              	.LVL96:
 325:main.c        ****                 last_key_state = 10;
 326:main.c        ****                 startTimer();
 1041              		.loc 1 326 0 is_stmt 1
 1042 0104 FFF7FEFF 		bl	startTimer
 1043              	.LVL97:
 325:main.c        ****                 last_key_state = 10;
 1044              		.loc 1 325 0
 1045 0108 0A24     		movs	r4, #10
 1046              	.LVL98:
 1047              	.L81:
 327:main.c        ****             }
 328:main.c        ****             
 329:main.c        ****             // ąÜąĮąŠą┐ą║ą░ # - ą▓ą▓č¢ą┤ ą┐ą░čĆąŠą╗čÄ
 330:main.c        ****             if (keys[3][2] == 0 && last_key_state != 11) {
 1048              		.loc 1 330 0
 1049 010a 084B     		ldr	r3, .L125+8
 1050 010c DB7D     		ldrb	r3, [r3, #23]
 1051 010e 002B     		cmp	r3, #0
 1052 0110 00D0     		beq	.LCB942
 1053 0112 DBE0     		b	.L82	@long jump
 1054              	.LCB942:
 1055              		.loc 1 330 0 is_stmt 0 discriminator 1
 1056 0114 0B2C     		cmp	r4, #11
 1057 0116 00D1     		bne	.LCB944
 1058 0118 D8E0     		b	.L82	@long jump
 1059              	.LCB944:
 1060              	.LVL99:
 331:main.c        ****                 last_key_state = 11;
 332:main.c        ****                 startPasswordInput();
 1061              		.loc 1 332 0 is_stmt 1
 1062 011a FFF7FEFF 		bl	startPasswordInput
 1063              	.LVL100:
 331:main.c        ****                 last_key_state = 11;
 1064              		.loc 1 331 0
 1065 011e 0B24     		movs	r4, #11
 1066 0120 D4E0     		b	.L82
 1067              	.L126:
 1068 0122 C046     		.align	2
 1069              	.L125:
ARM GAS  C:\Users\User\AppData\Local\Temp\ccwxAVLH.s 			page 27


 1070 0124 00000000 		.word	Timer_Display_Handler
 1071 0128 00000000 		.word	.LANCHOR1
 1072 012c 00000000 		.word	.LANCHOR2
 1073              	.LVL101:
 1074              	.L70:
 333:main.c        ****             }
 334:main.c        ****         }
 335:main.c        ****         else if (password_mode) {
 1075              		.loc 1 335 0
 1076 0130 002B     		cmp	r3, #0
 1077 0132 00D1     		bne	.LCB963
 1078 0134 CAE0     		b	.L82	@long jump
 1079              	.LCB963:
 336:main.c        ****             // ąĀąĄąČąĖą╝ ą▓ą▓ąŠą┤čā ą┐ą░čĆąŠą╗čÄ
 337:main.c        ****             if (keys[0][0] == 0 && last_key_state != 1 && input_index < 4) {
 1080              		.loc 1 337 0
 1081 0136 B84B     		ldr	r3, .L127
 1082 0138 1B7B     		ldrb	r3, [r3, #12]
 1083 013a 002B     		cmp	r3, #0
 1084 013c 0ED1     		bne	.L83
 1085              		.loc 1 337 0 is_stmt 0 discriminator 1
 1086 013e 012C     		cmp	r4, #1
 1087 0140 0CD0     		beq	.L83
 1088              		.loc 1 337 0 discriminator 2
 1089 0142 B64B     		ldr	r3, .L127+4
 1090 0144 1B7A     		ldrb	r3, [r3, #8]
 1091 0146 032B     		cmp	r3, #3
 1092 0148 08D8     		bhi	.L83
 1093              	.LVL102:
 338:main.c        ****                 last_key_state = 1;
 339:main.c        ****                 input_buffer[input_index] = 1;
 1094              		.loc 1 339 0 is_stmt 1
 1095 014a B44A     		ldr	r2, .L127+4
 1096 014c D018     		adds	r0, r2, r3
 1097 014e 0121     		movs	r1, #1
 1098 0150 0171     		strb	r1, [r0, #4]
 340:main.c        ****                 display_data[input_index] = 1;
 1099              		.loc 1 340 0
 1100 0152 B148     		ldr	r0, .L127
 1101 0154 C154     		strb	r1, [r0, r3]
 341:main.c        ****                 input_index++;
 1102              		.loc 1 341 0
 1103 0156 0133     		adds	r3, r3, #1
 1104 0158 1372     		strb	r3, [r2, #8]
 338:main.c        ****                 last_key_state = 1;
 1105              		.loc 1 338 0
 1106 015a 0124     		movs	r4, #1
 1107              	.LVL103:
 1108              	.L83:
 342:main.c        ****             }
 343:main.c        ****             if (keys[0][1] == 0 && last_key_state != 2 && input_index < 4) {
 1109              		.loc 1 343 0
 1110 015c AE4B     		ldr	r3, .L127
 1111 015e 5B7B     		ldrb	r3, [r3, #13]
 1112 0160 002B     		cmp	r3, #0
 1113 0162 0ED1     		bne	.L84
 1114              		.loc 1 343 0 is_stmt 0 discriminator 1
ARM GAS  C:\Users\User\AppData\Local\Temp\ccwxAVLH.s 			page 28


 1115 0164 022C     		cmp	r4, #2
 1116 0166 0CD0     		beq	.L84
 1117              		.loc 1 343 0 discriminator 2
 1118 0168 AC4B     		ldr	r3, .L127+4
 1119 016a 1B7A     		ldrb	r3, [r3, #8]
 1120 016c 032B     		cmp	r3, #3
 1121 016e 08D8     		bhi	.L84
 1122              	.LVL104:
 344:main.c        ****                 last_key_state = 2;
 345:main.c        ****                 input_buffer[input_index] = 2;
 1123              		.loc 1 345 0 is_stmt 1
 1124 0170 AA4A     		ldr	r2, .L127+4
 1125 0172 D018     		adds	r0, r2, r3
 1126 0174 0221     		movs	r1, #2
 1127 0176 0171     		strb	r1, [r0, #4]
 346:main.c        ****                 display_data[input_index] = 2;
 1128              		.loc 1 346 0
 1129 0178 A748     		ldr	r0, .L127
 1130 017a C154     		strb	r1, [r0, r3]
 347:main.c        ****                 input_index++;
 1131              		.loc 1 347 0
 1132 017c 0133     		adds	r3, r3, #1
 1133 017e 1372     		strb	r3, [r2, #8]
 344:main.c        ****                 last_key_state = 2;
 1134              		.loc 1 344 0
 1135 0180 0224     		movs	r4, #2
 1136              	.LVL105:
 1137              	.L84:
 348:main.c        ****             }
 349:main.c        ****             if (keys[0][2] == 0 && last_key_state != 3 && input_index < 4) {
 1138              		.loc 1 349 0
 1139 0182 A54B     		ldr	r3, .L127
 1140 0184 9B7B     		ldrb	r3, [r3, #14]
 1141 0186 002B     		cmp	r3, #0
 1142 0188 0ED1     		bne	.L85
 1143              		.loc 1 349 0 is_stmt 0 discriminator 1
 1144 018a 032C     		cmp	r4, #3
 1145 018c 0CD0     		beq	.L85
 1146              		.loc 1 349 0 discriminator 2
 1147 018e A34B     		ldr	r3, .L127+4
 1148 0190 1B7A     		ldrb	r3, [r3, #8]
 1149 0192 032B     		cmp	r3, #3
 1150 0194 08D8     		bhi	.L85
 1151              	.LVL106:
 350:main.c        ****                 last_key_state = 3;
 351:main.c        ****                 input_buffer[input_index] = 3;
 1152              		.loc 1 351 0 is_stmt 1
 1153 0196 A14A     		ldr	r2, .L127+4
 1154 0198 D018     		adds	r0, r2, r3
 1155 019a 0321     		movs	r1, #3
 1156 019c 0171     		strb	r1, [r0, #4]
 352:main.c        ****                 display_data[input_index] = 3;
 1157              		.loc 1 352 0
 1158 019e 9E48     		ldr	r0, .L127
 1159 01a0 C154     		strb	r1, [r0, r3]
 353:main.c        ****                 input_index++;
 1160              		.loc 1 353 0
ARM GAS  C:\Users\User\AppData\Local\Temp\ccwxAVLH.s 			page 29


 1161 01a2 0133     		adds	r3, r3, #1
 1162 01a4 1372     		strb	r3, [r2, #8]
 350:main.c        ****                 last_key_state = 3;
 1163              		.loc 1 350 0
 1164 01a6 0324     		movs	r4, #3
 1165              	.LVL107:
 1166              	.L85:
 354:main.c        ****             }
 355:main.c        ****             if (keys[1][0] == 0 && last_key_state != 4 && input_index < 4) {
 1167              		.loc 1 355 0
 1168 01a8 9B4B     		ldr	r3, .L127
 1169 01aa DB7B     		ldrb	r3, [r3, #15]
 1170 01ac 002B     		cmp	r3, #0
 1171 01ae 0ED1     		bne	.L86
 1172              		.loc 1 355 0 is_stmt 0 discriminator 1
 1173 01b0 042C     		cmp	r4, #4
 1174 01b2 0CD0     		beq	.L86
 1175              		.loc 1 355 0 discriminator 2
 1176 01b4 994B     		ldr	r3, .L127+4
 1177 01b6 1B7A     		ldrb	r3, [r3, #8]
 1178 01b8 032B     		cmp	r3, #3
 1179 01ba 08D8     		bhi	.L86
 1180              	.LVL108:
 356:main.c        ****                 last_key_state = 4;
 357:main.c        ****                 input_buffer[input_index] = 4;
 1181              		.loc 1 357 0 is_stmt 1
 1182 01bc 974A     		ldr	r2, .L127+4
 1183 01be D018     		adds	r0, r2, r3
 1184 01c0 0421     		movs	r1, #4
 1185 01c2 0171     		strb	r1, [r0, #4]
 358:main.c        ****                 display_data[input_index] = 4;
 1186              		.loc 1 358 0
 1187 01c4 9448     		ldr	r0, .L127
 1188 01c6 C154     		strb	r1, [r0, r3]
 359:main.c        ****                 input_index++;
 1189              		.loc 1 359 0
 1190 01c8 0133     		adds	r3, r3, #1
 1191 01ca 1372     		strb	r3, [r2, #8]
 356:main.c        ****                 last_key_state = 4;
 1192              		.loc 1 356 0
 1193 01cc 0424     		movs	r4, #4
 1194              	.LVL109:
 1195              	.L86:
 360:main.c        ****             }
 361:main.c        ****             if (keys[1][1] == 0 && last_key_state != 5 && input_index < 4) {
 1196              		.loc 1 361 0
 1197 01ce 924B     		ldr	r3, .L127
 1198 01d0 1B7C     		ldrb	r3, [r3, #16]
 1199 01d2 002B     		cmp	r3, #0
 1200 01d4 0ED1     		bne	.L87
 1201              		.loc 1 361 0 is_stmt 0 discriminator 1
 1202 01d6 052C     		cmp	r4, #5
 1203 01d8 0CD0     		beq	.L87
 1204              		.loc 1 361 0 discriminator 2
 1205 01da 904B     		ldr	r3, .L127+4
 1206 01dc 1B7A     		ldrb	r3, [r3, #8]
 1207 01de 032B     		cmp	r3, #3
ARM GAS  C:\Users\User\AppData\Local\Temp\ccwxAVLH.s 			page 30


 1208 01e0 08D8     		bhi	.L87
 1209              	.LVL110:
 362:main.c        ****                 last_key_state = 5;
 363:main.c        ****                 input_buffer[input_index] = 5;
 1210              		.loc 1 363 0 is_stmt 1
 1211 01e2 8E4A     		ldr	r2, .L127+4
 1212 01e4 D018     		adds	r0, r2, r3
 1213 01e6 0521     		movs	r1, #5
 1214 01e8 0171     		strb	r1, [r0, #4]
 364:main.c        ****                 display_data[input_index] = 5;
 1215              		.loc 1 364 0
 1216 01ea 8B48     		ldr	r0, .L127
 1217 01ec C154     		strb	r1, [r0, r3]
 365:main.c        ****                 input_index++;
 1218              		.loc 1 365 0
 1219 01ee 0133     		adds	r3, r3, #1
 1220 01f0 1372     		strb	r3, [r2, #8]
 362:main.c        ****                 last_key_state = 5;
 1221              		.loc 1 362 0
 1222 01f2 0524     		movs	r4, #5
 1223              	.LVL111:
 1224              	.L87:
 366:main.c        ****             }
 367:main.c        ****             if (keys[1][2] == 0 && last_key_state != 6 && input_index < 4) {
 1225              		.loc 1 367 0
 1226 01f4 884B     		ldr	r3, .L127
 1227 01f6 5B7C     		ldrb	r3, [r3, #17]
 1228 01f8 002B     		cmp	r3, #0
 1229 01fa 0ED1     		bne	.L88
 1230              		.loc 1 367 0 is_stmt 0 discriminator 1
 1231 01fc 062C     		cmp	r4, #6
 1232 01fe 0CD0     		beq	.L88
 1233              		.loc 1 367 0 discriminator 2
 1234 0200 864B     		ldr	r3, .L127+4
 1235 0202 1B7A     		ldrb	r3, [r3, #8]
 1236 0204 032B     		cmp	r3, #3
 1237 0206 08D8     		bhi	.L88
 1238              	.LVL112:
 368:main.c        ****                 last_key_state = 6;
 369:main.c        ****                 input_buffer[input_index] = 6;
 1239              		.loc 1 369 0 is_stmt 1
 1240 0208 844A     		ldr	r2, .L127+4
 1241 020a D018     		adds	r0, r2, r3
 1242 020c 0621     		movs	r1, #6
 1243 020e 0171     		strb	r1, [r0, #4]
 370:main.c        ****                 display_data[input_index] = 6;
 1244              		.loc 1 370 0
 1245 0210 8148     		ldr	r0, .L127
 1246 0212 C154     		strb	r1, [r0, r3]
 371:main.c        ****                 input_index++;
 1247              		.loc 1 371 0
 1248 0214 0133     		adds	r3, r3, #1
 1249 0216 1372     		strb	r3, [r2, #8]
 368:main.c        ****                 last_key_state = 6;
 1250              		.loc 1 368 0
 1251 0218 0624     		movs	r4, #6
 1252              	.LVL113:
ARM GAS  C:\Users\User\AppData\Local\Temp\ccwxAVLH.s 			page 31


 1253              	.L88:
 372:main.c        ****             }
 373:main.c        ****             if (keys[2][0] == 0 && last_key_state != 7 && input_index < 4) {
 1254              		.loc 1 373 0
 1255 021a 7F4B     		ldr	r3, .L127
 1256 021c 9B7C     		ldrb	r3, [r3, #18]
 1257 021e 002B     		cmp	r3, #0
 1258 0220 0ED1     		bne	.L89
 1259              		.loc 1 373 0 is_stmt 0 discriminator 1
 1260 0222 072C     		cmp	r4, #7
 1261 0224 0CD0     		beq	.L89
 1262              		.loc 1 373 0 discriminator 2
 1263 0226 7D4B     		ldr	r3, .L127+4
 1264 0228 1B7A     		ldrb	r3, [r3, #8]
 1265 022a 032B     		cmp	r3, #3
 1266 022c 08D8     		bhi	.L89
 1267              	.LVL114:
 374:main.c        ****                 last_key_state = 7;
 375:main.c        ****                 input_buffer[input_index] = 7;
 1268              		.loc 1 375 0 is_stmt 1
 1269 022e 7B4A     		ldr	r2, .L127+4
 1270 0230 D018     		adds	r0, r2, r3
 1271 0232 0721     		movs	r1, #7
 1272 0234 0171     		strb	r1, [r0, #4]
 376:main.c        ****                 display_data[input_index] = 7;
 1273              		.loc 1 376 0
 1274 0236 7848     		ldr	r0, .L127
 1275 0238 C154     		strb	r1, [r0, r3]
 377:main.c        ****                 input_index++;
 1276              		.loc 1 377 0
 1277 023a 0133     		adds	r3, r3, #1
 1278 023c 1372     		strb	r3, [r2, #8]
 374:main.c        ****                 last_key_state = 7;
 1279              		.loc 1 374 0
 1280 023e 0724     		movs	r4, #7
 1281              	.LVL115:
 1282              	.L89:
 378:main.c        ****             }
 379:main.c        ****             if (keys[2][1] == 0 && last_key_state != 8 && input_index < 4) {
 1283              		.loc 1 379 0
 1284 0240 754B     		ldr	r3, .L127
 1285 0242 DB7C     		ldrb	r3, [r3, #19]
 1286 0244 002B     		cmp	r3, #0
 1287 0246 0ED1     		bne	.L90
 1288              		.loc 1 379 0 is_stmt 0 discriminator 1
 1289 0248 082C     		cmp	r4, #8
 1290 024a 0CD0     		beq	.L90
 1291              		.loc 1 379 0 discriminator 2
 1292 024c 734B     		ldr	r3, .L127+4
 1293 024e 1B7A     		ldrb	r3, [r3, #8]
 1294 0250 032B     		cmp	r3, #3
 1295 0252 08D8     		bhi	.L90
 1296              	.LVL116:
 380:main.c        ****                 last_key_state = 8;
 381:main.c        ****                 input_buffer[input_index] = 8;
 1297              		.loc 1 381 0 is_stmt 1
 1298 0254 714A     		ldr	r2, .L127+4
ARM GAS  C:\Users\User\AppData\Local\Temp\ccwxAVLH.s 			page 32


 1299 0256 D018     		adds	r0, r2, r3
 1300 0258 0821     		movs	r1, #8
 1301 025a 0171     		strb	r1, [r0, #4]
 382:main.c        ****                 display_data[input_index] = 8;
 1302              		.loc 1 382 0
 1303 025c 6E48     		ldr	r0, .L127
 1304 025e C154     		strb	r1, [r0, r3]
 383:main.c        ****                 input_index++;
 1305              		.loc 1 383 0
 1306 0260 0133     		adds	r3, r3, #1
 1307 0262 1372     		strb	r3, [r2, #8]
 380:main.c        ****                 last_key_state = 8;
 1308              		.loc 1 380 0
 1309 0264 0824     		movs	r4, #8
 1310              	.LVL117:
 1311              	.L90:
 384:main.c        ****             }
 385:main.c        ****             if (keys[2][2] == 0 && last_key_state != 9 && input_index < 4) {
 1312              		.loc 1 385 0
 1313 0266 6C4B     		ldr	r3, .L127
 1314 0268 1B7D     		ldrb	r3, [r3, #20]
 1315 026a 002B     		cmp	r3, #0
 1316 026c 0ED1     		bne	.L91
 1317              		.loc 1 385 0 is_stmt 0 discriminator 1
 1318 026e 092C     		cmp	r4, #9
 1319 0270 0CD0     		beq	.L91
 1320              		.loc 1 385 0 discriminator 2
 1321 0272 6A4B     		ldr	r3, .L127+4
 1322 0274 1B7A     		ldrb	r3, [r3, #8]
 1323 0276 032B     		cmp	r3, #3
 1324 0278 08D8     		bhi	.L91
 1325              	.LVL118:
 386:main.c        ****                 last_key_state = 9;
 387:main.c        ****                 input_buffer[input_index] = 9;
 1326              		.loc 1 387 0 is_stmt 1
 1327 027a 684A     		ldr	r2, .L127+4
 1328 027c D018     		adds	r0, r2, r3
 1329 027e 0921     		movs	r1, #9
 1330 0280 0171     		strb	r1, [r0, #4]
 388:main.c        ****                 display_data[input_index] = 9;
 1331              		.loc 1 388 0
 1332 0282 6548     		ldr	r0, .L127
 1333 0284 C154     		strb	r1, [r0, r3]
 389:main.c        ****                 input_index++;
 1334              		.loc 1 389 0
 1335 0286 0133     		adds	r3, r3, #1
 1336 0288 1372     		strb	r3, [r2, #8]
 386:main.c        ****                 last_key_state = 9;
 1337              		.loc 1 386 0
 1338 028a 0924     		movs	r4, #9
 1339              	.LVL119:
 1340              	.L91:
 390:main.c        ****             }
 391:main.c        ****             if (keys[3][1] == 0 && last_key_state != 0 && input_index < 4) {
 1341              		.loc 1 391 0
 1342 028c 624B     		ldr	r3, .L127
 1343 028e 9B7D     		ldrb	r3, [r3, #22]
ARM GAS  C:\Users\User\AppData\Local\Temp\ccwxAVLH.s 			page 33


 1344 0290 002B     		cmp	r3, #0
 1345 0292 0ED1     		bne	.L92
 1346              		.loc 1 391 0 is_stmt 0 discriminator 1
 1347 0294 002C     		cmp	r4, #0
 1348 0296 0CD0     		beq	.L92
 1349              		.loc 1 391 0 discriminator 2
 1350 0298 604B     		ldr	r3, .L127+4
 1351 029a 1B7A     		ldrb	r3, [r3, #8]
 1352 029c 032B     		cmp	r3, #3
 1353 029e 08D8     		bhi	.L92
 1354              	.LVL120:
 392:main.c        ****                 last_key_state = 0;
 393:main.c        ****                 input_buffer[input_index] = 0;
 1355              		.loc 1 393 0 is_stmt 1
 1356 02a0 5E4A     		ldr	r2, .L127+4
 1357 02a2 D018     		adds	r0, r2, r3
 1358 02a4 0021     		movs	r1, #0
 1359 02a6 0171     		strb	r1, [r0, #4]
 394:main.c        ****                 display_data[input_index] = 0;
 1360              		.loc 1 394 0
 1361 02a8 5B48     		ldr	r0, .L127
 1362 02aa C154     		strb	r1, [r0, r3]
 395:main.c        ****                 input_index++;
 1363              		.loc 1 395 0
 1364 02ac 0133     		adds	r3, r3, #1
 1365 02ae 1372     		strb	r3, [r2, #8]
 392:main.c        ****                 last_key_state = 0;
 1366              		.loc 1 392 0
 1367 02b0 0024     		movs	r4, #0
 1368              	.LVL121:
 1369              	.L92:
 396:main.c        ****             }
 397:main.c        ****             
 398:main.c        ****             // ąÜąĮąŠą┐ą║ą░ # - ą┐ąĄčĆąĄą▓č¢čĆą║ą░ ą┐ą░čĆąŠą╗čÄ
 399:main.c        ****             if (keys[3][2] == 0 && last_key_state != 11 && input_index == 4) {
 1370              		.loc 1 399 0
 1371 02b2 594B     		ldr	r3, .L127
 1372 02b4 DB7D     		ldrb	r3, [r3, #23]
 1373 02b6 002B     		cmp	r3, #0
 1374 02b8 08D1     		bne	.L82
 1375              		.loc 1 399 0 is_stmt 0 discriminator 1
 1376 02ba 0B2C     		cmp	r4, #11
 1377 02bc 06D0     		beq	.L82
 1378              		.loc 1 399 0 discriminator 2
 1379 02be 574B     		ldr	r3, .L127+4
 1380 02c0 1B7A     		ldrb	r3, [r3, #8]
 1381 02c2 042B     		cmp	r3, #4
 1382 02c4 02D1     		bne	.L82
 1383              	.LVL122:
 400:main.c        ****                 last_key_state = 11;
 401:main.c        ****                 checkPassword();
 1384              		.loc 1 401 0 is_stmt 1
 1385 02c6 FFF7FEFF 		bl	checkPassword
 1386              	.LVL123:
 400:main.c        ****                 last_key_state = 11;
 1387              		.loc 1 400 0
 1388 02ca 0B24     		movs	r4, #11
ARM GAS  C:\Users\User\AppData\Local\Temp\ccwxAVLH.s 			page 34


 1389              	.LVL124:
 1390              	.L82:
 402:main.c        ****             }
 403:main.c        ****         }
 404:main.c        ****         
 405:main.c        ****         // ąĪą║ąĖą┤ą░ąĮąĮčÅ čüčéą░ąĮčā ą║ąĮąŠą┐ąŠą║
 406:main.c        ****         if (keys[0][0] == 1 && last_key_state == 1) last_key_state = 12;
 1391              		.loc 1 406 0
 1392 02cc 524B     		ldr	r3, .L127
 1393 02ce 1B7B     		ldrb	r3, [r3, #12]
 1394 02d0 012B     		cmp	r3, #1
 1395 02d2 02D1     		bne	.L93
 1396              		.loc 1 406 0 is_stmt 0 discriminator 1
 1397 02d4 012C     		cmp	r4, #1
 1398 02d6 00D1     		bne	.L93
 1399              		.loc 1 406 0
 1400 02d8 0B34     		adds	r4, r4, #11
 1401              	.LVL125:
 1402              	.L93:
 407:main.c        ****         if (keys[0][1] == 1 && last_key_state == 2) last_key_state = 12;
 1403              		.loc 1 407 0 is_stmt 1
 1404 02da 4F4B     		ldr	r3, .L127
 1405 02dc 5B7B     		ldrb	r3, [r3, #13]
 1406 02de 012B     		cmp	r3, #1
 1407 02e0 02D1     		bne	.L94
 1408              		.loc 1 407 0 is_stmt 0 discriminator 1
 1409 02e2 022C     		cmp	r4, #2
 1410 02e4 00D1     		bne	.L94
 1411              		.loc 1 407 0
 1412 02e6 0A34     		adds	r4, r4, #10
 1413              	.LVL126:
 1414              	.L94:
 408:main.c        ****         if (keys[0][2] == 1 && last_key_state == 3) last_key_state = 12;
 1415              		.loc 1 408 0 is_stmt 1
 1416 02e8 4B4B     		ldr	r3, .L127
 1417 02ea 9B7B     		ldrb	r3, [r3, #14]
 1418 02ec 012B     		cmp	r3, #1
 1419 02ee 02D1     		bne	.L95
 1420              		.loc 1 408 0 is_stmt 0 discriminator 1
 1421 02f0 032C     		cmp	r4, #3
 1422 02f2 00D1     		bne	.L95
 1423              		.loc 1 408 0
 1424 02f4 0934     		adds	r4, r4, #9
 1425              	.LVL127:
 1426              	.L95:
 409:main.c        ****         if (keys[1][0] == 1 && last_key_state == 4) last_key_state = 12;
 1427              		.loc 1 409 0 is_stmt 1
 1428 02f6 484B     		ldr	r3, .L127
 1429 02f8 DB7B     		ldrb	r3, [r3, #15]
 1430 02fa 012B     		cmp	r3, #1
 1431 02fc 02D1     		bne	.L96
 1432              		.loc 1 409 0 is_stmt 0 discriminator 1
 1433 02fe 042C     		cmp	r4, #4
 1434 0300 00D1     		bne	.L96
 1435              		.loc 1 409 0
 1436 0302 0834     		adds	r4, r4, #8
 1437              	.LVL128:
ARM GAS  C:\Users\User\AppData\Local\Temp\ccwxAVLH.s 			page 35


 1438              	.L96:
 410:main.c        ****         if (keys[1][1] == 1 && last_key_state == 5) last_key_state = 12;
 1439              		.loc 1 410 0 is_stmt 1
 1440 0304 444B     		ldr	r3, .L127
 1441 0306 1B7C     		ldrb	r3, [r3, #16]
 1442 0308 012B     		cmp	r3, #1
 1443 030a 02D1     		bne	.L97
 1444              		.loc 1 410 0 is_stmt 0 discriminator 1
 1445 030c 052C     		cmp	r4, #5
 1446 030e 00D1     		bne	.L97
 1447              		.loc 1 410 0
 1448 0310 0734     		adds	r4, r4, #7
 1449              	.LVL129:
 1450              	.L97:
 411:main.c        ****         if (keys[1][2] == 1 && last_key_state == 6) last_key_state = 12;
 1451              		.loc 1 411 0 is_stmt 1
 1452 0312 414B     		ldr	r3, .L127
 1453 0314 5B7C     		ldrb	r3, [r3, #17]
 1454 0316 012B     		cmp	r3, #1
 1455 0318 02D1     		bne	.L98
 1456              		.loc 1 411 0 is_stmt 0 discriminator 1
 1457 031a 062C     		cmp	r4, #6
 1458 031c 00D1     		bne	.L98
 1459              		.loc 1 411 0
 1460 031e 0634     		adds	r4, r4, #6
 1461              	.LVL130:
 1462              	.L98:
 412:main.c        ****         if (keys[2][0] == 1 && last_key_state == 7) last_key_state = 12;
 1463              		.loc 1 412 0 is_stmt 1
 1464 0320 3D4B     		ldr	r3, .L127
 1465 0322 9B7C     		ldrb	r3, [r3, #18]
 1466 0324 012B     		cmp	r3, #1
 1467 0326 02D1     		bne	.L99
 1468              		.loc 1 412 0 is_stmt 0 discriminator 1
 1469 0328 072C     		cmp	r4, #7
 1470 032a 00D1     		bne	.L99
 1471              		.loc 1 412 0
 1472 032c 0534     		adds	r4, r4, #5
 1473              	.LVL131:
 1474              	.L99:
 413:main.c        ****         if (keys[2][1] == 1 && last_key_state == 8) last_key_state = 12;
 1475              		.loc 1 413 0 is_stmt 1
 1476 032e 3A4B     		ldr	r3, .L127
 1477 0330 DB7C     		ldrb	r3, [r3, #19]
 1478 0332 012B     		cmp	r3, #1
 1479 0334 02D1     		bne	.L100
 1480              		.loc 1 413 0 is_stmt 0 discriminator 1
 1481 0336 082C     		cmp	r4, #8
 1482 0338 00D1     		bne	.L100
 1483              		.loc 1 413 0
 1484 033a 0434     		adds	r4, r4, #4
 1485              	.LVL132:
 1486              	.L100:
 414:main.c        ****         if (keys[2][2] == 1 && last_key_state == 9) last_key_state = 12;
 1487              		.loc 1 414 0 is_stmt 1
 1488 033c 364B     		ldr	r3, .L127
 1489 033e 1B7D     		ldrb	r3, [r3, #20]
ARM GAS  C:\Users\User\AppData\Local\Temp\ccwxAVLH.s 			page 36


 1490 0340 012B     		cmp	r3, #1
 1491 0342 02D1     		bne	.L101
 1492              		.loc 1 414 0 is_stmt 0 discriminator 1
 1493 0344 092C     		cmp	r4, #9
 1494 0346 00D1     		bne	.L101
 1495              		.loc 1 414 0
 1496 0348 0334     		adds	r4, r4, #3
 1497              	.LVL133:
 1498              	.L101:
 415:main.c        ****         if (keys[3][0] == 1 && last_key_state == 10) last_key_state = 12;
 1499              		.loc 1 415 0 is_stmt 1
 1500 034a 334B     		ldr	r3, .L127
 1501 034c 5B7D     		ldrb	r3, [r3, #21]
 1502 034e 012B     		cmp	r3, #1
 1503 0350 02D1     		bne	.L102
 1504              		.loc 1 415 0 is_stmt 0 discriminator 1
 1505 0352 0A2C     		cmp	r4, #10
 1506 0354 00D1     		bne	.L102
 1507              		.loc 1 415 0
 1508 0356 0234     		adds	r4, r4, #2
 1509              	.LVL134:
 1510              	.L102:
 416:main.c        ****         if (keys[3][1] == 1 && last_key_state == 0) last_key_state = 12;
 1511              		.loc 1 416 0 is_stmt 1
 1512 0358 2F4B     		ldr	r3, .L127
 1513 035a 9B7D     		ldrb	r3, [r3, #22]
 1514 035c 012B     		cmp	r3, #1
 1515 035e 02D1     		bne	.L103
 1516              		.loc 1 416 0 is_stmt 0 discriminator 1
 1517 0360 002C     		cmp	r4, #0
 1518 0362 00D1     		bne	.L103
 1519              		.loc 1 416 0
 1520 0364 0C34     		adds	r4, r4, #12
 1521              	.LVL135:
 1522              	.L103:
 417:main.c        ****         if (keys[3][2] == 1 && last_key_state == 11) last_key_state = 12;
 1523              		.loc 1 417 0 is_stmt 1
 1524 0366 2C4B     		ldr	r3, .L127
 1525 0368 DB7D     		ldrb	r3, [r3, #23]
 1526 036a 012B     		cmp	r3, #1
 1527 036c 02D1     		bne	.L104
 1528              		.loc 1 417 0 is_stmt 0 discriminator 1
 1529 036e 0B2C     		cmp	r4, #11
 1530 0370 00D1     		bne	.L104
 1531              		.loc 1 417 0
 1532 0372 0134     		adds	r4, r4, #1
 1533              	.LVL136:
 1534              	.L104:
 418:main.c        ****         
 419:main.c        ****         // ą×ąĮąŠą▓ą╗ąĄąĮąĮčÅ ą╗č¢čćąĖą╗čīąĮąĖą║č¢ą▓
 420:main.c        ****         main_counter++;
 1535              		.loc 1 420 0 is_stmt 1
 1536 0374 0135     		adds	r5, r5, #1
 1537              	.LVL137:
 421:main.c        ****         
 422:main.c        ****         // ąóą░ą╣ą╝ąĄčĆ 5 čģą▓ąĖą╗ąĖąĮ (1 čüąĄą║čāąĮą┤ą░)
 423:main.c        ****         if (timer_running && main_counter >= 100) {
ARM GAS  C:\Users\User\AppData\Local\Temp\ccwxAVLH.s 			page 37


 1538              		.loc 1 423 0
 1539 0376 294B     		ldr	r3, .L127+4
 1540 0378 9B78     		ldrb	r3, [r3, #2]
 1541 037a 002B     		cmp	r3, #0
 1542 037c 0FD0     		beq	.L105
 1543              		.loc 1 423 0 is_stmt 0 discriminator 1
 1544 037e 632D     		cmp	r5, #99
 1545 0380 0DD9     		bls	.L105
 1546              	.LVL138:
 424:main.c        ****             main_counter = 0;
 425:main.c        ****             timer_counter++;
 1547              		.loc 1 425 0 is_stmt 1
 1548 0382 264A     		ldr	r2, .L127+4
 1549 0384 D368     		ldr	r3, [r2, #12]
 1550 0386 0133     		adds	r3, r3, #1
 1551 0388 D360     		str	r3, [r2, #12]
 426:main.c        ****             if (timer_counter >= 10) {
 1552              		.loc 1 426 0
 1553 038a 092B     		cmp	r3, #9
 1554 038c 06D9     		bls	.L124
 427:main.c        ****                 timer_counter = 0;
 1555              		.loc 1 427 0
 1556 038e 0022     		movs	r2, #0
 1557 0390 224B     		ldr	r3, .L127+4
 1558 0392 DA60     		str	r2, [r3, #12]
 428:main.c        ****                 updateTimer();
 1559              		.loc 1 428 0
 1560 0394 FFF7FEFF 		bl	updateTimer
 1561              	.LVL139:
 424:main.c        ****             timer_counter++;
 1562              		.loc 1 424 0
 1563 0398 0025     		movs	r5, #0
 1564 039a 00E0     		b	.L105
 1565              	.L124:
 1566 039c 0025     		movs	r5, #0
 1567              	.LVL140:
 1568              	.L105:
 429:main.c        ****             }
 430:main.c        ****         }
 431:main.c        ****         
 432:main.c        ****         // ąŚčüčāą▓ ąŠčüčéą░ąĮąĮč¢čģ 4 čåąĖčäčĆ (500 ą╝čü)
 433:main.c        ****         if (!password_mode && !password_verified && !timer_running) {
 1569              		.loc 1 433 0
 1570 039e 1F4B     		ldr	r3, .L127+4
 1571 03a0 1B78     		ldrb	r3, [r3]
 1572 03a2 002B     		cmp	r3, #0
 1573 03a4 12D1     		bne	.L106
 1574              		.loc 1 433 0 is_stmt 0 discriminator 1
 1575 03a6 1D4B     		ldr	r3, .L127+4
 1576 03a8 5B78     		ldrb	r3, [r3, #1]
 1577 03aa 002B     		cmp	r3, #0
 1578 03ac 0ED1     		bne	.L106
 1579              		.loc 1 433 0 discriminator 2
 1580 03ae 1B4B     		ldr	r3, .L127+4
 1581 03b0 9B78     		ldrb	r3, [r3, #2]
 1582 03b2 002B     		cmp	r3, #0
 1583 03b4 0AD1     		bne	.L106
ARM GAS  C:\Users\User\AppData\Local\Temp\ccwxAVLH.s 			page 38


 434:main.c        ****             shift_counter++;
 1584              		.loc 1 434 0 is_stmt 1
 1585 03b6 194A     		ldr	r2, .L127+4
 1586 03b8 1369     		ldr	r3, [r2, #16]
 1587 03ba 0133     		adds	r3, r3, #1
 1588 03bc 1361     		str	r3, [r2, #16]
 435:main.c        ****             if (shift_counter >= 50) {
 1589              		.loc 1 435 0
 1590 03be 312B     		cmp	r3, #49
 1591 03c0 04D9     		bls	.L106
 436:main.c        ****                 shift_counter = 0;
 1592              		.loc 1 436 0
 1593 03c2 0022     		movs	r2, #0
 1594 03c4 154B     		ldr	r3, .L127+4
 1595 03c6 1A61     		str	r2, [r3, #16]
 437:main.c        ****                 shiftRightLast4();
 1596              		.loc 1 437 0
 1597 03c8 FFF7FEFF 		bl	shiftRightLast4
 1598              	.LVL141:
 1599              	.L106:
 438:main.c        ****             }
 439:main.c        ****         }
 440:main.c        ****         
 441:main.c        ****         // ą£ąĖą│ą░ąĮąĮčÅ ą┤ą╗čÅ č¢ąĮą┤ąĖą║ą░čåč¢čŚ ą┐ą░čĆąŠą╗čÄ (250 ą╝čü)
 442:main.c        ****         if (password_verified) {
 1600              		.loc 1 442 0
 1601 03cc 134B     		ldr	r3, .L127+4
 1602 03ce 5B78     		ldrb	r3, [r3, #1]
 1603 03d0 002B     		cmp	r3, #0
 1604 03d2 2ED0     		beq	.L107
 1605              	.LBB12:
 443:main.c        ****             blink_counter++;
 1606              		.loc 1 443 0
 1607 03d4 114A     		ldr	r2, .L127+4
 1608 03d6 5369     		ldr	r3, [r2, #20]
 1609 03d8 0133     		adds	r3, r3, #1
 1610 03da 5361     		str	r3, [r2, #20]
 444:main.c        ****             if (blink_counter >= 25) {
 1611              		.loc 1 444 0
 1612 03dc 182B     		cmp	r3, #24
 1613 03de 06D9     		bls	.L108
 445:main.c        ****                 blink_counter = 0;
 1614              		.loc 1 445 0
 1615 03e0 1300     		movs	r3, r2
 1616 03e2 0022     		movs	r2, #0
 1617 03e4 5A61     		str	r2, [r3, #20]
 446:main.c        ****                 blink_state = !blink_state;
 1618              		.loc 1 446 0
 1619 03e6 D97A     		ldrb	r1, [r3, #11]
 1620 03e8 4A42     		rsbs	r2, r1, #0
 1621 03ea 4A41     		adcs	r2, r2, r1
 1622 03ec DA72     		strb	r2, [r3, #11]
 1623              	.L108:
 447:main.c        ****             }
 448:main.c        ****             
 449:main.c        ****             // ąÉą▓čéąŠą╝ą░čéąĖčćąĮąĖą╣ ą▓ąĖčģč¢ą┤ čćąĄčĆąĄąĘ 5 čüąĄą║čāąĮą┤
 450:main.c        ****             static uint32_t indication_timer = 0;
ARM GAS  C:\Users\User\AppData\Local\Temp\ccwxAVLH.s 			page 39


 451:main.c        ****             indication_timer++;
 1624              		.loc 1 451 0
 1625 03ee 0B4A     		ldr	r2, .L127+4
 1626 03f0 9369     		ldr	r3, [r2, #24]
 1627 03f2 0133     		adds	r3, r3, #1
 1628 03f4 9361     		str	r3, [r2, #24]
 452:main.c        ****             if (indication_timer >= 500) {
 1629              		.loc 1 452 0
 1630 03f6 F422     		movs	r2, #244
 1631 03f8 FF32     		adds	r2, r2, #255
 1632 03fa 9342     		cmp	r3, r2
 1633 03fc 19D9     		bls	.L107
 1634              	.LBB13:
 453:main.c        ****                 indication_timer = 0;
 1635              		.loc 1 453 0
 1636 03fe 074B     		ldr	r3, .L127+4
 1637 0400 0022     		movs	r2, #0
 1638 0402 9A61     		str	r2, [r3, #24]
 454:main.c        ****                 password_verified = 0;
 1639              		.loc 1 454 0
 1640 0404 5A70     		strb	r2, [r3, #1]
 455:main.c        ****                 // ąÆč¢ą┤ąĮąŠą▓ąĖčéąĖ ą┐ąŠčćą░čéą║ąŠą▓ąĖą╣ čüčéą░ąĮ
 456:main.c        ****                 uint8_t default_data[8] = {0, 0, 0, 0, 5, 4, 0, 0};
 1641              		.loc 1 456 0
 1642 0406 0832     		adds	r2, r2, #8
 1643 0408 0549     		ldr	r1, .L127+8
 1644 040a 4031     		adds	r1, r1, #64
 1645 040c 6846     		mov	r0, sp
 1646 040e FFF7FEFF 		bl	memcpy
 1647              	.LVL142:
 1648              	.LBB14:
 457:main.c        ****                 for (int i = 0; i < 8; i++) {
 1649              		.loc 1 457 0
 1650 0412 0023     		movs	r3, #0
 1651 0414 0BE0     		b	.L109
 1652              	.L128:
 1653 0416 C046     		.align	2
 1654              	.L127:
 1655 0418 00000000 		.word	.LANCHOR2
 1656 041c 00000000 		.word	.LANCHOR1
 1657 0420 00000000 		.word	.LANCHOR0
 1658              	.LVL143:
 1659              	.L110:
 458:main.c        ****                     display_data[i] = default_data[i];
 1660              		.loc 1 458 0 discriminator 3
 1661 0424 6A46     		mov	r2, sp
 1662 0426 D15C     		ldrb	r1, [r2, r3]
 1663 0428 044A     		ldr	r2, .L129
 1664 042a D154     		strb	r1, [r2, r3]
 457:main.c        ****                 for (int i = 0; i < 8; i++) {
 1665              		.loc 1 457 0 discriminator 3
 1666 042c 0133     		adds	r3, r3, #1
 1667              	.LVL144:
 1668              	.L109:
 457:main.c        ****                 for (int i = 0; i < 8; i++) {
 1669              		.loc 1 457 0 is_stmt 0 discriminator 1
 1670 042e 072B     		cmp	r3, #7
ARM GAS  C:\Users\User\AppData\Local\Temp\ccwxAVLH.s 			page 40


 1671 0430 F8DD     		ble	.L110
 1672              	.LVL145:
 1673              	.L107:
 1674              	.LBE14:
 1675              	.LBE13:
 1676              	.LBE12:
 459:main.c        ****                 }
 460:main.c        ****             }
 461:main.c        ****         }
 462:main.c        ****         
 463:main.c        ****         CyDelay(10);
 1677              		.loc 1 463 0 is_stmt 1
 1678 0432 0A20     		movs	r0, #10
 1679 0434 FFF7FEFF 		bl	CyDelay
 1680              	.LVL146:
 464:main.c        ****     }
 1681              		.loc 1 464 0
 1682 0438 EEE5     		b	.L111
 1683              	.L130:
 1684 043a C046     		.align	2
 1685              	.L129:
 1686 043c 00000000 		.word	.LANCHOR2
 1687              		.cfi_endproc
 1688              	.LFE42:
 1689              		.size	main, .-main
 1690              		.section	.rodata
 1691              		.align	2
 1692              		.set	.LANCHOR0,. + 0
 1693              		.type	COLUMN_SetDriveMode, %object
 1694              		.size	COLUMN_SetDriveMode, 12
 1695              	COLUMN_SetDriveMode:
 1696 0000 00000000 		.word	COLUMN_0_SetDriveMode
 1697 0004 00000000 		.word	COLUMN_1_SetDriveMode
 1698 0008 00000000 		.word	COLUMN_2_SetDriveMode
 1699              		.type	password, %object
 1700              		.size	password, 4
 1701              	password:
 1702 000c 01       		.byte	1
 1703 000d 02       		.byte	2
 1704 000e 03       		.byte	3
 1705 000f 04       		.byte	4
 1706              		.type	COLUMN_Write, %object
 1707              		.size	COLUMN_Write, 12
 1708              	COLUMN_Write:
 1709 0010 00000000 		.word	COLUMN_0_Write
 1710 0014 00000000 		.word	COLUMN_1_Write
 1711 0018 00000000 		.word	COLUMN_2_Write
 1712              		.type	ROW_Read, %object
 1713              		.size	ROW_Read, 16
 1714              	ROW_Read:
 1715 001c 00000000 		.word	ROW_0_Read
 1716 0020 00000000 		.word	ROW_1_Read
 1717 0024 00000000 		.word	ROW_2_Read
 1718 0028 00000000 		.word	ROW_3_Read
 1719              		.type	SEGMENT_CODES, %object
 1720              		.size	SEGMENT_CODES, 18
 1721              	SEGMENT_CODES:
ARM GAS  C:\Users\User\AppData\Local\Temp\ccwxAVLH.s 			page 41


 1722 002c C0       		.byte	-64
 1723 002d F9       		.byte	-7
 1724 002e A4       		.byte	-92
 1725 002f B0       		.byte	-80
 1726 0030 99       		.byte	-103
 1727 0031 92       		.byte	-110
 1728 0032 82       		.byte	-126
 1729 0033 F8       		.byte	-8
 1730 0034 80       		.byte	-128
 1731 0035 90       		.byte	-112
 1732 0036 88       		.byte	-120
 1733 0037 83       		.byte	-125
 1734 0038 C6       		.byte	-58
 1735 0039 A1       		.byte	-95
 1736 003a 86       		.byte	-122
 1737 003b 8E       		.byte	-114
 1738 003c 00       		.byte	0
 1739 003d FF       		.byte	-1
 1740 003e 0000     		.space	2
 1741              	.LC0:
 1742 0040 00       		.byte	0
 1743 0041 00       		.byte	0
 1744 0042 00       		.byte	0
 1745 0043 00       		.byte	0
 1746 0044 05       		.byte	5
 1747 0045 04       		.byte	4
 1748 0046 00       		.byte	0
 1749 0047 00       		.byte	0
 1750              		.data
 1751              		.align	2
 1752              		.set	.LANCHOR2,. + 0
 1753              		.type	display_data, %object
 1754              		.size	display_data, 8
 1755              	display_data:
 1756 0000 00       		.byte	0
 1757 0001 00       		.byte	0
 1758 0002 00       		.byte	0
 1759 0003 00       		.byte	0
 1760 0004 05       		.byte	5
 1761 0005 04       		.byte	4
 1762 0006 00       		.byte	0
 1763 0007 00       		.byte	0
 1764              		.type	timer_minutes, %object
 1765              		.size	timer_minutes, 1
 1766              	timer_minutes:
 1767 0008 05       		.byte	5
 1768 0009 000000   		.space	3
 1769              		.type	keys, %object
 1770              		.size	keys, 12
 1771              	keys:
 1772 000c 01       		.byte	1
 1773 000d 02       		.byte	2
 1774 000e 03       		.byte	3
 1775 000f 04       		.byte	4
 1776 0010 05       		.byte	5
 1777 0011 06       		.byte	6
 1778 0012 07       		.byte	7
ARM GAS  C:\Users\User\AppData\Local\Temp\ccwxAVLH.s 			page 42


 1779 0013 08       		.byte	8
 1780 0014 09       		.byte	9
 1781 0015 0A       		.byte	10
 1782 0016 00       		.byte	0
 1783 0017 0B       		.byte	11
 1784              		.bss
 1785              		.align	2
 1786              		.set	.LANCHOR1,. + 0
 1787              		.type	password_mode, %object
 1788              		.size	password_mode, 1
 1789              	password_mode:
 1790 0000 00       		.space	1
 1791              		.type	password_verified, %object
 1792              		.size	password_verified, 1
 1793              	password_verified:
 1794 0001 00       		.space	1
 1795              		.type	timer_running, %object
 1796              		.size	timer_running, 1
 1797              	timer_running:
 1798 0002 00       		.space	1
 1799 0003 00       		.space	1
 1800              		.type	input_buffer, %object
 1801              		.size	input_buffer, 4
 1802              	input_buffer:
 1803 0004 00000000 		.space	4
 1804              		.type	input_index, %object
 1805              		.size	input_index, 1
 1806              	input_index:
 1807 0008 00       		.space	1
 1808              		.type	timer_seconds, %object
 1809              		.size	timer_seconds, 1
 1810              	timer_seconds:
 1811 0009 00       		.space	1
 1812              		.type	current_digit, %object
 1813              		.size	current_digit, 1
 1814              	current_digit:
 1815 000a 00       		.space	1
 1816              		.type	blink_state, %object
 1817              		.size	blink_state, 1
 1818              	blink_state:
 1819 000b 00       		.space	1
 1820              		.type	timer_counter, %object
 1821              		.size	timer_counter, 4
 1822              	timer_counter:
 1823 000c 00000000 		.space	4
 1824              		.type	shift_counter, %object
 1825              		.size	shift_counter, 4
 1826              	shift_counter:
 1827 0010 00000000 		.space	4
 1828              		.type	blink_counter, %object
 1829              		.size	blink_counter, 4
 1830              	blink_counter:
 1831 0014 00000000 		.space	4
 1832              		.type	indication_timer.5471, %object
 1833              		.size	indication_timer.5471, 4
 1834              	indication_timer.5471:
 1835 0018 00000000 		.space	4
ARM GAS  C:\Users\User\AppData\Local\Temp\ccwxAVLH.s 			page 43


 1836              		.text
 1837              	.Letext0:
 1838              		.file 2 "c:\\program files (x86)\\cypress\\psoc creator\\4.4\\psoc creator\\import\\gnu\\arm\\5.4.
 1839              		.file 3 "c:\\program files (x86)\\cypress\\psoc creator\\4.4\\psoc creator\\import\\gnu\\arm\\5.4.
 1840              		.file 4 "Generated_Source\\PSoC4/CyLib.h"
 1841              		.file 5 "Generated_Source\\PSoC4/Pin_DO.h"
 1842              		.file 6 "Generated_Source\\PSoC4/Pin_CLK.h"
 1843              		.file 7 "Generated_Source\\PSoC4/Pin_Latch.h"
 1844              		.file 8 "Generated_Source\\PSoC4/Timer.h"
 1845              		.file 9 "Generated_Source\\PSoC4/Timer_Int.h"