ARM GAS  C:\Users\User\AppData\Local\Temp\ccSqZeZu.s 			page 1


   1              		.syntax unified
   2              		.cpu cortex-m0
   3              		.fpu softvfp
   4              		.eabi_attribute 20, 1
   5              		.eabi_attribute 21, 1
   6              		.eabi_attribute 23, 3
   7              		.eabi_attribute 24, 1
   8              		.eabi_attribute 25, 1
   9              		.eabi_attribute 26, 1
  10              		.eabi_attribute 30, 1
  11              		.eabi_attribute 34, 0
  12              		.eabi_attribute 18, 4
  13              		.thumb
  14              		.syntax unified
  15              		.file	"main.c"
  16              		.text
  17              	.Ltext0:
  18              		.cfi_sections	.debug_frame
  19              		.section	.text.initMatrix,"ax",%progbits
  20              		.align	2
  21              		.code	16
  22              		.thumb_func
  23              		.type	initMatrix, %function
  24              	initMatrix:
  25              	.LFB32:
  26              		.file 1 "main.c"
   1:main.c        **** #include "project.h"  
   2:main.c        **** /* arrays of pointers */  
   3:main.c        **** /* function of drive mode configuration */  
   4:main.c        **** static void (*COLUMN_x_SetDriveMode[3])(uint8_t mode) = {  
   5:main.c        **** COLUMN_0_SetDriveMode,  
   6:main.c        **** COLUMN_1_SetDriveMode,  
   7:main.c        **** COLUMN_2_SetDriveMode  
   8:main.c        **** };    
   9:main.c        **** /* column write function */      
  10:main.c        **** static void (*COLUMN_x_Write[3])(uint8_t value) = {  
  11:main.c        **** COLUMN_0_Write,  
  12:main.c        **** COLUMN_1_Write,  
  13:main.c        **** COLUMN_2_Write  
  14:main.c        **** };  
  15:main.c        **** /* read row function */     
  16:main.c        **** static uint8 (*ROW_x_Read[4])() = {  
  17:main.c        ****     ROW_0_Read,  
  18:main.c        ****     ROW_1_Read,  
  19:main.c        ****     ROW_2_Read,  
  20:main.c        ****     ROW_3_Read  
  21:main.c        **** };  
  22:main.c        ****   
  23:main.c        **** /* [ROW][COLUMN] */  
  24:main.c        **** static uint8_t keys[4][3] = {  
  25:main.c        ****     {1, 2, 3},  
  26:main.c        ****     {4, 5, 6},  
  27:main.c        ****     {7, 8, 9},  
  28:main.c        ****     {10, 0, 11},  
  29:main.c        **** };  
  30:main.c        ****  
  31:main.c        **** /* Password settings */ 
ARM GAS  C:\Users\User\AppData\Local\Temp\ccSqZeZu.s 			page 2


  32:main.c        **** #define PASSWORD_LENGTH 3 
  33:main.c        **** static const uint8_t PASSWORD[PASSWORD_LENGTH] = {1, 2, 3}; // ąÆčüčéą░ąĮąŠą▓č¢čéčī čüą▓č¢ą╣ ą┐ą░čĆ
  34:main.c        **** static uint8_t password_buffer[PASSWORD_LENGTH]; 
  35:main.c        **** static uint8_t password_index = 0; 
  36:main.c        **** static uint8_t password_locked = 1; // 1 = ąĘą░ą▒ą╗ąŠą║ąŠą▓ą░ąĮąŠ, 0 = čĆąŠąĘą▒ą╗ąŠą║ąŠą▓ą░ąĮąŠ 
  37:main.c        ****   
  38:main.c        **** /* matrix initialization function */  
  39:main.c        **** static void initMatrix()  
  40:main.c        **** {  
  27              		.loc 1 40 0
  28              		.cfi_startproc
  29              		@ args = 0, pretend = 0, frame = 0
  30              		@ frame_needed = 0, uses_anonymous_args = 0
  31 0000 10B5     		push	{r4, lr}
  32              		.cfi_def_cfa_offset 8
  33              		.cfi_offset 4, -8
  34              		.cfi_offset 14, -4
  35              	.LVL0:
  36              	.LBB2:
  41:main.c        ****     for(int column_index = 0; column_index < 3; column_index++)  
  37              		.loc 1 41 0
  38 0002 0024     		movs	r4, #0
  39 0004 05E0     		b	.L2
  40              	.LVL1:
  41              	.L3:
  42:main.c        ****     {  
  43:main.c        ****         COLUMN_x_SetDriveMode[column_index](COLUMN_0_DM_DIG_HIZ);  
  42              		.loc 1 43 0 discriminator 3
  43 0006 A200     		lsls	r2, r4, #2
  44 0008 034B     		ldr	r3, .L4
  45 000a D358     		ldr	r3, [r2, r3]
  46 000c 0120     		movs	r0, #1
  47 000e 9847     		blx	r3
  48              	.LVL2:
  41:main.c        ****     for(int column_index = 0; column_index < 3; column_index++)  
  49              		.loc 1 41 0 discriminator 3
  50 0010 0134     		adds	r4, r4, #1
  51              	.LVL3:
  52              	.L2:
  41:main.c        ****     for(int column_index = 0; column_index < 3; column_index++)  
  53              		.loc 1 41 0 is_stmt 0 discriminator 1
  54 0012 022C     		cmp	r4, #2
  55 0014 F7DD     		ble	.L3
  56              	.LBE2:
  44:main.c        ****     }  
  45:main.c        **** }  
  57              		.loc 1 45 0 is_stmt 1
  58              		@ sp needed
  59              	.LVL4:
  60 0016 10BD     		pop	{r4, pc}
  61              	.L5:
  62              		.align	2
  63              	.L4:
  64 0018 60000000 		.word	.LANCHOR0
  65              		.cfi_endproc
  66              	.LFE32:
  67              		.size	initMatrix, .-initMatrix
ARM GAS  C:\Users\User\AppData\Local\Temp\ccSqZeZu.s 			page 3


  68              		.section	.text.readMatrix,"ax",%progbits
  69              		.align	2
  70              		.code	16
  71              		.thumb_func
  72              		.type	readMatrix, %function
  73              	readMatrix:
  74              	.LFB33:
  46:main.c        ****   
  47:main.c        **** /* keys matrix read function */  
  48:main.c        **** static void readMatrix()  
  49:main.c        **** {  
  75              		.loc 1 49 0
  76              		.cfi_startproc
  77              		@ args = 0, pretend = 0, frame = 0
  78              		@ frame_needed = 0, uses_anonymous_args = 0
  79 0000 70B5     		push	{r4, r5, r6, lr}
  80              		.cfi_def_cfa_offset 16
  81              		.cfi_offset 4, -16
  82              		.cfi_offset 5, -12
  83              		.cfi_offset 6, -8
  84              		.cfi_offset 14, -4
  85              	.LVL5:
  86              	.LBB3:
  50:main.c        ****     /* define the length of a row and column */  
  51:main.c        ****     uint8_t row_counter = sizeof(ROW_x_Read)/sizeof(ROW_x_Read[0]);  
  52:main.c        ****     uint8_t column_counter = 
  53:main.c        **** sizeof(COLUMN_x_Write)/sizeof(COLUMN_x_Write[0]);      
  54:main.c        ****     /* column: iterate the columns */  
  55:main.c        ****     for(int column_index = 0; column_index < column_counter; column_index++) 
  87              		.loc 1 55 0
  88 0002 0025     		movs	r5, #0
  89 0004 1DE0     		b	.L7
  90              	.LVL6:
  91              	.L10:
  56:main.c        **** {  
  57:main.c        ****         COLUMN_x_SetDriveMode[column_index](COLUMN_0_DM_STRONG);  
  92              		.loc 1 57 0
  93 0006 104E     		ldr	r6, .L11
  94 0008 AC00     		lsls	r4, r5, #2
  95 000a 0620     		movs	r0, #6
  96 000c A359     		ldr	r3, [r4, r6]
  97 000e 9847     		blx	r3
  98              	.LVL7:
  58:main.c        ****         COLUMN_x_Write[column_index](0); 
  99              		.loc 1 58 0
 100 0010 3419     		adds	r4, r6, r4
 101 0012 E368     		ldr	r3, [r4, #12]
 102 0014 0020     		movs	r0, #0
 103 0016 9847     		blx	r3
 104              	.LVL8:
 105              	.LBB4:
  59:main.c        ****         /* row: interate throught the rows */  
  60:main.c        ****         for(int row_index = 0; row_index < row_counter; row_index++)  
 106              		.loc 1 60 0
 107 0018 0024     		movs	r4, #0
 108 001a 0AE0     		b	.L8
 109              	.LVL9:
ARM GAS  C:\Users\User\AppData\Local\Temp\ccSqZeZu.s 			page 4


 110              	.L9:
  61:main.c        ****         {  
  62:main.c        ****             keys[row_index][column_index] = ROW_x_Read[row_index]();  
 111              		.loc 1 62 0 discriminator 3
 112 001c A300     		lsls	r3, r4, #2
 113 001e 0A4A     		ldr	r2, .L11
 114 0020 D318     		adds	r3, r2, r3
 115 0022 9B69     		ldr	r3, [r3, #24]
 116 0024 9847     		blx	r3
 117              	.LVL10:
 118 0026 6300     		lsls	r3, r4, #1
 119 0028 1B19     		adds	r3, r3, r4
 120 002a 084A     		ldr	r2, .L11+4
 121 002c D318     		adds	r3, r2, r3
 122 002e 5855     		strb	r0, [r3, r5]
  60:main.c        ****         {  
 123              		.loc 1 60 0 discriminator 3
 124 0030 0134     		adds	r4, r4, #1
 125              	.LVL11:
 126              	.L8:
  60:main.c        ****         {  
 127              		.loc 1 60 0 is_stmt 0 discriminator 1
 128 0032 032C     		cmp	r4, #3
 129 0034 F2DD     		ble	.L9
 130              	.LBE4:
  63:main.c        ****         }  
  64:main.c        ****         /* disable the column */  
  65:main.c        ****         COLUMN_x_SetDriveMode[column_index](COLUMN_0_DM_DIG_HIZ);  
 131              		.loc 1 65 0 is_stmt 1 discriminator 2
 132 0036 AA00     		lsls	r2, r5, #2
 133 0038 034B     		ldr	r3, .L11
 134 003a D358     		ldr	r3, [r2, r3]
 135 003c 0120     		movs	r0, #1
 136 003e 9847     		blx	r3
 137              	.LVL12:
  55:main.c        **** {  
 138              		.loc 1 55 0 discriminator 2
 139 0040 0135     		adds	r5, r5, #1
 140              	.LVL13:
 141              	.L7:
  55:main.c        **** {  
 142              		.loc 1 55 0 is_stmt 0 discriminator 1
 143 0042 022D     		cmp	r5, #2
 144 0044 DFDD     		ble	.L10
 145              	.LBE3:
  66:main.c        ****     }  
  67:main.c        **** } 
 146              		.loc 1 67 0 is_stmt 1
 147              		@ sp needed
 148              	.LVL14:
 149 0046 70BD     		pop	{r4, r5, r6, pc}
 150              	.L12:
 151              		.align	2
 152              	.L11:
 153 0048 60000000 		.word	.LANCHOR0
 154 004c 00000000 		.word	.LANCHOR1
 155              		.cfi_endproc
ARM GAS  C:\Users\User\AppData\Local\Temp\ccSqZeZu.s 			page 5


 156              	.LFE33:
 157              		.size	readMatrix, .-readMatrix
 158              		.section	.text.printButtonName,"ax",%progbits
 159              		.align	2
 160              		.code	16
 161              		.thumb_func
 162              		.type	printButtonName, %function
 163              	printButtonName:
 164              	.LFB36:
  68:main.c        ****  
  69:main.c        **** /* Function to check password */ 
  70:main.c        **** static void checkPassword() 
  71:main.c        **** { 
  72:main.c        ****     uint8_t correct = 1; 
  73:main.c        ****     for(int i = 0; i < PASSWORD_LENGTH; i++) 
  74:main.c        ****     { 
  75:main.c        ****         if(password_buffer[i] != PASSWORD[i]) 
  76:main.c        ****         { 
  77:main.c        ****             correct = 0; 
  78:main.c        ****             break; 
  79:main.c        ****         } 
  80:main.c        ****     } 
  81:main.c        ****      
  82:main.c        ****     if(correct) 
  83:main.c        ****     { 
  84:main.c        ****         SW_Tx_UART_PutString("Access allowed"); 
  85:main.c        ****         SW_Tx_UART_PutCRLF(); 
  86:main.c        ****         password_locked = 0; 
  87:main.c        ****         // ąæč¢ą╗ąĖą╣ čüą▓č¢čéą╗ąŠą┤č¢ąŠą┤ ą┐čĆąĖ čĆąŠąĘą▒ą╗ąŠą║čāą▓ą░ąĮąĮč¢ 
  88:main.c        ****         LED_R_Write(0); 
  89:main.c        ****         LED_G_Write(0); 
  90:main.c        ****         LED_B_Write(0); 
  91:main.c        ****         CyDelay(1000); 
  92:main.c        ****     } 
  93:main.c        ****     else 
  94:main.c        ****     { 
  95:main.c        ****         SW_Tx_UART_PutString("Access denied"); 
  96:main.c        ****         SW_Tx_UART_PutCRLF(); 
  97:main.c        ****         password_locked = 1; 
  98:main.c        ****     } 
  99:main.c        ****      
 100:main.c        ****     password_index = 0; 
 101:main.c        **** } 
 102:main.c        ****  
 103:main.c        **** /* Function to set LED color based on button */ 
 104:main.c        **** static void setLEDColor(uint8_t button_value) 
 105:main.c        **** { 
 106:main.c        ****     switch(button_value) 
 107:main.c        ****     { 
 108:main.c        ****         case 1:  // Red 
 109:main.c        ****         case 7: 
 110:main.c        ****             LED_R_Write(0); 
 111:main.c        ****             LED_G_Write(1); 
 112:main.c        ****             LED_B_Write(1); 
 113:main.c        ****             break; 
 114:main.c        ****              
 115:main.c        ****         case 2:  // Green 
ARM GAS  C:\Users\User\AppData\Local\Temp\ccSqZeZu.s 			page 6


 116:main.c        ****         case 8: 
 117:main.c        ****             LED_R_Write(1); 
 118:main.c        ****             LED_G_Write(0); 
 119:main.c        ****             LED_B_Write(1); 
 120:main.c        ****             break; 
 121:main.c        ****              
 122:main.c        ****         case 3:  // Blue 
 123:main.c        ****         case 9: 
 124:main.c        ****             LED_R_Write(1); 
 125:main.c        ****             LED_G_Write(1); 
 126:main.c        ****             LED_B_Write(0); 
 127:main.c        ****             break; 
 128:main.c        ****              
 129:main.c        ****         case 4:  // Yellow (Red + Green) 
 130:main.c        ****         case 10: // * 
 131:main.c        ****             LED_R_Write(0); 
 132:main.c        ****             LED_G_Write(0); 
 133:main.c        ****             LED_B_Write(1); 
 134:main.c        ****             break; 
 135:main.c        ****              
 136:main.c        ****         case 5:  // Purple (Red + Blue) 
 137:main.c        ****         case 0: 
 138:main.c        ****             LED_R_Write(0); 
 139:main.c        ****             LED_G_Write(1); 
 140:main.c        ****             LED_B_Write(0); 
 141:main.c        ****             break; 
 142:main.c        ****              
 143:main.c        ****         case 6:  // Cyan (Green + Blue) 
 144:main.c        ****         case 11: // # 
 145:main.c        ****             LED_R_Write(1); 
 146:main.c        ****             LED_G_Write(0); 
 147:main.c        ****             LED_B_Write(0); 
 148:main.c        ****             break; 
 149:main.c        ****              
 150:main.c        ****         default: 
 151:main.c        ****             // Turn off LED (Black) 
 152:main.c        ****             LED_R_Write(1); 
 153:main.c        ****             LED_G_Write(1); 
 154:main.c        ****             LED_B_Write(1); 
 155:main.c        ****             break; 
 156:main.c        ****     } 
 157:main.c        **** } 
 158:main.c        ****  
 159:main.c        **** /* Function to get button name */ 
 160:main.c        **** static void printButtonName(uint8_t button_value) 
 161:main.c        **** { 
 165              		.loc 1 161 0
 166              		.cfi_startproc
 167              		@ args = 0, pretend = 0, frame = 0
 168              		@ frame_needed = 0, uses_anonymous_args = 0
 169              	.LVL15:
 170 0000 10B5     		push	{r4, lr}
 171              		.cfi_def_cfa_offset 8
 172              		.cfi_offset 4, -8
 173              		.cfi_offset 14, -4
 162:main.c        ****     switch(button_value) 
 174              		.loc 1 162 0
ARM GAS  C:\Users\User\AppData\Local\Temp\ccSqZeZu.s 			page 7


 175 0002 0B28     		cmp	r0, #11
 176 0004 32D8     		bhi	.L14
 177 0006 8000     		lsls	r0, r0, #2
 178              	.LVL16:
 179 0008 1A4B     		ldr	r3, .L28
 180 000a 1B58     		ldr	r3, [r3, r0]
 181 000c 9F46     		mov	pc, r3
 182              		.section	.rodata
 183              		.align	2
 184              	.L16:
 185 0000 0E000000 		.word	.L15
 186 0004 16000000 		.word	.L17
 187 0008 1E000000 		.word	.L18
 188 000c 26000000 		.word	.L19
 189 0010 2E000000 		.word	.L20
 190 0014 36000000 		.word	.L21
 191 0018 3E000000 		.word	.L22
 192 001c 46000000 		.word	.L23
 193 0020 4E000000 		.word	.L24
 194 0024 56000000 		.word	.L25
 195 0028 5E000000 		.word	.L26
 196 002c 66000000 		.word	.L27
 197              		.section	.text.printButtonName
 198              	.L15:
 163:main.c        ****     { 
 164:main.c        ****         case 0: 
 165:main.c        ****             SW_Tx_UART_PutString("Button 0 pressed"); 
 199              		.loc 1 165 0
 200 000e 1A48     		ldr	r0, .L28+4
 201 0010 FFF7FEFF 		bl	SW_Tx_UART_PutString
 202              	.LVL17:
 166:main.c        ****             break; 
 203              		.loc 1 166 0
 204 0014 2AE0     		b	.L14
 205              	.L17:
 167:main.c        ****         case 1: 
 168:main.c        ****             SW_Tx_UART_PutString("Button 1 pressed"); 
 206              		.loc 1 168 0
 207 0016 1948     		ldr	r0, .L28+8
 208 0018 FFF7FEFF 		bl	SW_Tx_UART_PutString
 209              	.LVL18:
 169:main.c        ****             break; 
 210              		.loc 1 169 0
 211 001c 26E0     		b	.L14
 212              	.L18:
 170:main.c        ****         case 2: 
 171:main.c        ****             SW_Tx_UART_PutString("Button 2 pressed"); 
 213              		.loc 1 171 0
 214 001e 1848     		ldr	r0, .L28+12
 215 0020 FFF7FEFF 		bl	SW_Tx_UART_PutString
 216              	.LVL19:
 172:main.c        ****             break; 
 217              		.loc 1 172 0
 218 0024 22E0     		b	.L14
 219              	.L19:
 173:main.c        ****         case 3: 
 174:main.c        ****             SW_Tx_UART_PutString("Button 3 pressed"); 
ARM GAS  C:\Users\User\AppData\Local\Temp\ccSqZeZu.s 			page 8


 220              		.loc 1 174 0
 221 0026 1748     		ldr	r0, .L28+16
 222 0028 FFF7FEFF 		bl	SW_Tx_UART_PutString
 223              	.LVL20:
 175:main.c        ****             break; 
 224              		.loc 1 175 0
 225 002c 1EE0     		b	.L14
 226              	.L20:
 176:main.c        ****         case 4: 
 177:main.c        ****             SW_Tx_UART_PutString("Button 4 pressed"); 
 227              		.loc 1 177 0
 228 002e 1648     		ldr	r0, .L28+20
 229 0030 FFF7FEFF 		bl	SW_Tx_UART_PutString
 230              	.LVL21:
 178:main.c        ****             break; 
 231              		.loc 1 178 0
 232 0034 1AE0     		b	.L14
 233              	.L21:
 179:main.c        ****         case 5: 
 180:main.c        ****             SW_Tx_UART_PutString("Button 5 pressed"); 
 234              		.loc 1 180 0
 235 0036 1548     		ldr	r0, .L28+24
 236 0038 FFF7FEFF 		bl	SW_Tx_UART_PutString
 237              	.LVL22:
 181:main.c        ****             break; 
 238              		.loc 1 181 0
 239 003c 16E0     		b	.L14
 240              	.L22:
 182:main.c        ****         case 6: 
 183:main.c        ****             SW_Tx_UART_PutString("Button 6 pressed"); 
 241              		.loc 1 183 0
 242 003e 1448     		ldr	r0, .L28+28
 243 0040 FFF7FEFF 		bl	SW_Tx_UART_PutString
 244              	.LVL23:
 184:main.c        ****             break; 
 245              		.loc 1 184 0
 246 0044 12E0     		b	.L14
 247              	.L23:
 185:main.c        ****         case 7: 
 186:main.c        ****             SW_Tx_UART_PutString("Button 7 pressed"); 
 248              		.loc 1 186 0
 249 0046 1348     		ldr	r0, .L28+32
 250 0048 FFF7FEFF 		bl	SW_Tx_UART_PutString
 251              	.LVL24:
 187:main.c        ****             break; 
 252              		.loc 1 187 0
 253 004c 0EE0     		b	.L14
 254              	.L24:
 188:main.c        ****         case 8: 
 189:main.c        ****             SW_Tx_UART_PutString("Button 8 pressed"); 
 255              		.loc 1 189 0
 256 004e 1248     		ldr	r0, .L28+36
 257 0050 FFF7FEFF 		bl	SW_Tx_UART_PutString
 258              	.LVL25:
 190:main.c        ****             break; 
 259              		.loc 1 190 0
 260 0054 0AE0     		b	.L14
ARM GAS  C:\Users\User\AppData\Local\Temp\ccSqZeZu.s 			page 9


 261              	.L25:
 191:main.c        ****         case 9: 
 192:main.c        ****             SW_Tx_UART_PutString("Button 9 pressed"); 
 262              		.loc 1 192 0
 263 0056 1148     		ldr	r0, .L28+40
 264 0058 FFF7FEFF 		bl	SW_Tx_UART_PutString
 265              	.LVL26:
 193:main.c        ****             break; 
 266              		.loc 1 193 0
 267 005c 06E0     		b	.L14
 268              	.L26:
 194:main.c        ****         case 10: 
 195:main.c        ****             SW_Tx_UART_PutString("Button * pressed"); 
 269              		.loc 1 195 0
 270 005e 1048     		ldr	r0, .L28+44
 271 0060 FFF7FEFF 		bl	SW_Tx_UART_PutString
 272              	.LVL27:
 196:main.c        ****             break; 
 273              		.loc 1 196 0
 274 0064 02E0     		b	.L14
 275              	.L27:
 197:main.c        ****         case 11: 
 198:main.c        ****             SW_Tx_UART_PutString("Button # pressed"); 
 276              		.loc 1 198 0
 277 0066 0F48     		ldr	r0, .L28+48
 278 0068 FFF7FEFF 		bl	SW_Tx_UART_PutString
 279              	.LVL28:
 280              	.L14:
 199:main.c        ****             break; 
 200:main.c        ****         default: 
 201:main.c        ****             break; 
 202:main.c        ****     } 
 203:main.c        ****     SW_Tx_UART_PutCRLF(); 
 281              		.loc 1 203 0
 282 006c FFF7FEFF 		bl	SW_Tx_UART_PutCRLF
 283              	.LVL29:
 204:main.c        **** } 
 284              		.loc 1 204 0
 285              		@ sp needed
 286 0070 10BD     		pop	{r4, pc}
 287              	.L29:
 288 0072 C046     		.align	2
 289              	.L28:
 290 0074 00000000 		.word	.L16
 291 0078 00000000 		.word	.LC4
 292 007c 14000000 		.word	.LC6
 293 0080 28000000 		.word	.LC8
 294 0084 3C000000 		.word	.LC10
 295 0088 50000000 		.word	.LC12
 296 008c 64000000 		.word	.LC14
 297 0090 78000000 		.word	.LC16
 298 0094 8C000000 		.word	.LC18
 299 0098 A0000000 		.word	.LC20
 300 009c B4000000 		.word	.LC22
 301 00a0 C8000000 		.word	.LC24
 302 00a4 DC000000 		.word	.LC26
 303              		.cfi_endproc
ARM GAS  C:\Users\User\AppData\Local\Temp\ccSqZeZu.s 			page 10


 304              	.LFE36:
 305              		.size	printButtonName, .-printButtonName
 306              		.section	.text.setLEDColor,"ax",%progbits
 307              		.align	2
 308              		.code	16
 309              		.thumb_func
 310              		.type	setLEDColor, %function
 311              	setLEDColor:
 312              	.LFB35:
 105:main.c        ****     switch(button_value) 
 313              		.loc 1 105 0
 314              		.cfi_startproc
 315              		@ args = 0, pretend = 0, frame = 0
 316              		@ frame_needed = 0, uses_anonymous_args = 0
 317              	.LVL30:
 318 0000 10B5     		push	{r4, lr}
 319              		.cfi_def_cfa_offset 8
 320              		.cfi_offset 4, -8
 321              		.cfi_offset 14, -4
 106:main.c        ****     { 
 322              		.loc 1 106 0
 323 0002 0B28     		cmp	r0, #11
 324 0004 3FD8     		bhi	.L31
 325 0006 8000     		lsls	r0, r0, #2
 326              	.LVL31:
 327 0008 244B     		ldr	r3, .L40
 328 000a 1B58     		ldr	r3, [r3, r0]
 329 000c 9F46     		mov	pc, r3
 330              		.section	.rodata
 331              		.align	2
 332              	.L33:
 333 0030 5E000000 		.word	.L32
 334 0034 0E000000 		.word	.L34
 335 0038 22000000 		.word	.L35
 336 003c 36000000 		.word	.L36
 337 0040 4A000000 		.word	.L37
 338 0044 5E000000 		.word	.L32
 339 0048 72000000 		.word	.L38
 340 004c 0E000000 		.word	.L34
 341 0050 22000000 		.word	.L35
 342 0054 36000000 		.word	.L36
 343 0058 4A000000 		.word	.L37
 344 005c 72000000 		.word	.L38
 345              		.section	.text.setLEDColor
 346              	.L34:
 110:main.c        ****             LED_G_Write(1); 
 347              		.loc 1 110 0
 348 000e 0020     		movs	r0, #0
 349 0010 FFF7FEFF 		bl	LED_R_Write
 350              	.LVL32:
 111:main.c        ****             LED_B_Write(1); 
 351              		.loc 1 111 0
 352 0014 0120     		movs	r0, #1
 353 0016 FFF7FEFF 		bl	LED_G_Write
 354              	.LVL33:
 112:main.c        ****             break; 
 355              		.loc 1 112 0
ARM GAS  C:\Users\User\AppData\Local\Temp\ccSqZeZu.s 			page 11


 356 001a 0120     		movs	r0, #1
 357 001c FFF7FEFF 		bl	LED_B_Write
 358              	.LVL34:
 113:main.c        ****              
 359              		.loc 1 113 0
 360 0020 3AE0     		b	.L30
 361              	.L35:
 117:main.c        ****             LED_G_Write(0); 
 362              		.loc 1 117 0
 363 0022 0120     		movs	r0, #1
 364 0024 FFF7FEFF 		bl	LED_R_Write
 365              	.LVL35:
 118:main.c        ****             LED_B_Write(1); 
 366              		.loc 1 118 0
 367 0028 0020     		movs	r0, #0
 368 002a FFF7FEFF 		bl	LED_G_Write
 369              	.LVL36:
 119:main.c        ****             break; 
 370              		.loc 1 119 0
 371 002e 0120     		movs	r0, #1
 372 0030 FFF7FEFF 		bl	LED_B_Write
 373              	.LVL37:
 120:main.c        ****              
 374              		.loc 1 120 0
 375 0034 30E0     		b	.L30
 376              	.L36:
 124:main.c        ****             LED_G_Write(1); 
 377              		.loc 1 124 0
 378 0036 0120     		movs	r0, #1
 379 0038 FFF7FEFF 		bl	LED_R_Write
 380              	.LVL38:
 125:main.c        ****             LED_B_Write(0); 
 381              		.loc 1 125 0
 382 003c 0120     		movs	r0, #1
 383 003e FFF7FEFF 		bl	LED_G_Write
 384              	.LVL39:
 126:main.c        ****             break; 
 385              		.loc 1 126 0
 386 0042 0020     		movs	r0, #0
 387 0044 FFF7FEFF 		bl	LED_B_Write
 388              	.LVL40:
 127:main.c        ****              
 389              		.loc 1 127 0
 390 0048 26E0     		b	.L30
 391              	.L37:
 131:main.c        ****             LED_G_Write(0); 
 392              		.loc 1 131 0
 393 004a 0020     		movs	r0, #0
 394 004c FFF7FEFF 		bl	LED_R_Write
 395              	.LVL41:
 132:main.c        ****             LED_B_Write(1); 
 396              		.loc 1 132 0
 397 0050 0020     		movs	r0, #0
 398 0052 FFF7FEFF 		bl	LED_G_Write
 399              	.LVL42:
 133:main.c        ****             break; 
 400              		.loc 1 133 0
ARM GAS  C:\Users\User\AppData\Local\Temp\ccSqZeZu.s 			page 12


 401 0056 0120     		movs	r0, #1
 402 0058 FFF7FEFF 		bl	LED_B_Write
 403              	.LVL43:
 134:main.c        ****              
 404              		.loc 1 134 0
 405 005c 1CE0     		b	.L30
 406              	.L32:
 138:main.c        ****             LED_G_Write(1); 
 407              		.loc 1 138 0
 408 005e 0020     		movs	r0, #0
 409 0060 FFF7FEFF 		bl	LED_R_Write
 410              	.LVL44:
 139:main.c        ****             LED_B_Write(0); 
 411              		.loc 1 139 0
 412 0064 0120     		movs	r0, #1
 413 0066 FFF7FEFF 		bl	LED_G_Write
 414              	.LVL45:
 140:main.c        ****             break; 
 415              		.loc 1 140 0
 416 006a 0020     		movs	r0, #0
 417 006c FFF7FEFF 		bl	LED_B_Write
 418              	.LVL46:
 141:main.c        ****              
 419              		.loc 1 141 0
 420 0070 12E0     		b	.L30
 421              	.L38:
 145:main.c        ****             LED_G_Write(0); 
 422              		.loc 1 145 0
 423 0072 0120     		movs	r0, #1
 424 0074 FFF7FEFF 		bl	LED_R_Write
 425              	.LVL47:
 146:main.c        ****             LED_B_Write(0); 
 426              		.loc 1 146 0
 427 0078 0020     		movs	r0, #0
 428 007a FFF7FEFF 		bl	LED_G_Write
 429              	.LVL48:
 147:main.c        ****             break; 
 430              		.loc 1 147 0
 431 007e 0020     		movs	r0, #0
 432 0080 FFF7FEFF 		bl	LED_B_Write
 433              	.LVL49:
 148:main.c        ****              
 434              		.loc 1 148 0
 435 0084 08E0     		b	.L30
 436              	.LVL50:
 437              	.L31:
 152:main.c        ****             LED_G_Write(1); 
 438              		.loc 1 152 0
 439 0086 0120     		movs	r0, #1
 440              	.LVL51:
 441 0088 FFF7FEFF 		bl	LED_R_Write
 442              	.LVL52:
 153:main.c        ****             LED_B_Write(1); 
 443              		.loc 1 153 0
 444 008c 0120     		movs	r0, #1
 445 008e FFF7FEFF 		bl	LED_G_Write
 446              	.LVL53:
ARM GAS  C:\Users\User\AppData\Local\Temp\ccSqZeZu.s 			page 13


 154:main.c        ****             break; 
 447              		.loc 1 154 0
 448 0092 0120     		movs	r0, #1
 449 0094 FFF7FEFF 		bl	LED_B_Write
 450              	.LVL54:
 451              	.L30:
 157:main.c        ****  
 452              		.loc 1 157 0
 453              		@ sp needed
 454 0098 10BD     		pop	{r4, pc}
 455              	.L41:
 456 009a C046     		.align	2
 457              	.L40:
 458 009c 30000000 		.word	.L33
 459              		.cfi_endproc
 460              	.LFE35:
 461              		.size	setLEDColor, .-setLEDColor
 462              		.section	.text.checkPassword,"ax",%progbits
 463              		.align	2
 464              		.code	16
 465              		.thumb_func
 466              		.type	checkPassword, %function
 467              	checkPassword:
 468              	.LFB34:
  71:main.c        ****     uint8_t correct = 1; 
 469              		.loc 1 71 0
 470              		.cfi_startproc
 471              		@ args = 0, pretend = 0, frame = 0
 472              		@ frame_needed = 0, uses_anonymous_args = 0
 473 0000 10B5     		push	{r4, lr}
 474              		.cfi_def_cfa_offset 8
 475              		.cfi_offset 4, -8
 476              		.cfi_offset 14, -4
 477              	.LVL55:
 478              	.LBB5:
  73:main.c        ****     { 
 479              		.loc 1 73 0
 480 0002 0023     		movs	r3, #0
 481 0004 06E0     		b	.L43
 482              	.LVL56:
 483              	.L45:
  75:main.c        ****         { 
 484              		.loc 1 75 0
 485 0006 184A     		ldr	r2, .L49
 486 0008 D15C     		ldrb	r1, [r2, r3]
 487 000a 184A     		ldr	r2, .L49+4
 488 000c D25C     		ldrb	r2, [r2, r3]
 489 000e 9142     		cmp	r1, r2
 490 0010 04D1     		bne	.L48
  73:main.c        ****     { 
 491              		.loc 1 73 0 discriminator 2
 492 0012 0133     		adds	r3, r3, #1
 493              	.LVL57:
 494              	.L43:
  73:main.c        ****     { 
 495              		.loc 1 73 0 is_stmt 0 discriminator 1
 496 0014 022B     		cmp	r3, #2
ARM GAS  C:\Users\User\AppData\Local\Temp\ccSqZeZu.s 			page 14


 497 0016 F6DD     		ble	.L45
 498              	.LBE5:
  72:main.c        ****     for(int i = 0; i < PASSWORD_LENGTH; i++) 
 499              		.loc 1 72 0 is_stmt 1
 500 0018 0123     		movs	r3, #1
 501              	.LVL58:
 502              	.LBB6:
 503 001a 00E0     		b	.L44
 504              	.LVL59:
 505              	.L48:
  77:main.c        ****             break; 
 506              		.loc 1 77 0
 507 001c 0023     		movs	r3, #0
 508              	.LVL60:
 509              	.L44:
 510              	.LBE6:
  82:main.c        ****     { 
 511              		.loc 1 82 0
 512 001e 002B     		cmp	r3, #0
 513 0020 15D0     		beq	.L46
  84:main.c        ****         SW_Tx_UART_PutCRLF(); 
 514              		.loc 1 84 0
 515 0022 1348     		ldr	r0, .L49+8
 516 0024 FFF7FEFF 		bl	SW_Tx_UART_PutString
 517              	.LVL61:
  85:main.c        ****         password_locked = 0; 
 518              		.loc 1 85 0
 519 0028 FFF7FEFF 		bl	SW_Tx_UART_PutCRLF
 520              	.LVL62:
  86:main.c        ****         // ąæč¢ą╗ąĖą╣ čüą▓č¢čéą╗ąŠą┤č¢ąŠą┤ ą┐čĆąĖ čĆąŠąĘą▒ą╗ąŠą║čāą▓ą░ąĮąĮč¢ 
 521              		.loc 1 86 0
 522 002c 0022     		movs	r2, #0
 523 002e 114B     		ldr	r3, .L49+12
 524 0030 1A73     		strb	r2, [r3, #12]
  88:main.c        ****         LED_G_Write(0); 
 525              		.loc 1 88 0
 526 0032 0020     		movs	r0, #0
 527 0034 FFF7FEFF 		bl	LED_R_Write
 528              	.LVL63:
  89:main.c        ****         LED_B_Write(0); 
 529              		.loc 1 89 0
 530 0038 0020     		movs	r0, #0
 531 003a FFF7FEFF 		bl	LED_G_Write
 532              	.LVL64:
  90:main.c        ****         CyDelay(1000); 
 533              		.loc 1 90 0
 534 003e 0020     		movs	r0, #0
 535 0040 FFF7FEFF 		bl	LED_B_Write
 536              	.LVL65:
  91:main.c        ****     } 
 537              		.loc 1 91 0
 538 0044 FA20     		movs	r0, #250
 539 0046 8000     		lsls	r0, r0, #2
 540 0048 FFF7FEFF 		bl	CyDelay
 541              	.LVL66:
 542 004c 07E0     		b	.L47
 543              	.LVL67:
ARM GAS  C:\Users\User\AppData\Local\Temp\ccSqZeZu.s 			page 15


 544              	.L46:
  95:main.c        ****         SW_Tx_UART_PutCRLF(); 
 545              		.loc 1 95 0
 546 004e 0A48     		ldr	r0, .L49+16
 547 0050 FFF7FEFF 		bl	SW_Tx_UART_PutString
 548              	.LVL68:
  96:main.c        ****         password_locked = 1; 
 549              		.loc 1 96 0
 550 0054 FFF7FEFF 		bl	SW_Tx_UART_PutCRLF
 551              	.LVL69:
  97:main.c        ****     } 
 552              		.loc 1 97 0
 553 0058 0122     		movs	r2, #1
 554 005a 064B     		ldr	r3, .L49+12
 555 005c 1A73     		strb	r2, [r3, #12]
 556              	.L47:
 100:main.c        **** } 
 557              		.loc 1 100 0
 558 005e 0022     		movs	r2, #0
 559 0060 014B     		ldr	r3, .L49
 560 0062 DA70     		strb	r2, [r3, #3]
 101:main.c        ****  
 561              		.loc 1 101 0
 562              		@ sp needed
 563 0064 10BD     		pop	{r4, pc}
 564              	.L50:
 565 0066 C046     		.align	2
 566              	.L49:
 567 0068 00000000 		.word	.LANCHOR2
 568 006c 88000000 		.word	.LANCHOR3
 569 0070 F0000000 		.word	.LC31
 570 0074 00000000 		.word	.LANCHOR1
 571 0078 00010000 		.word	.LC34
 572              		.cfi_endproc
 573              	.LFE34:
 574              		.size	checkPassword, .-checkPassword
 575              		.section	.text.main,"ax",%progbits
 576              		.align	2
 577              		.global	main
 578              		.code	16
 579              		.thumb_func
 580              		.type	main, %function
 581              	main:
 582              	.LFB37:
 205:main.c        ****    
 206:main.c        **** int main(void)  
 207:main.c        **** {  
 583              		.loc 1 207 0
 584              		.cfi_startproc
 585              		@ args = 0, pretend = 0, frame = 0
 586              		@ frame_needed = 0, uses_anonymous_args = 0
 587 0000 70B5     		push	{r4, r5, r6, lr}
 588              		.cfi_def_cfa_offset 16
 589              		.cfi_offset 4, -16
 590              		.cfi_offset 5, -12
 591              		.cfi_offset 6, -8
 592              		.cfi_offset 14, -4
ARM GAS  C:\Users\User\AppData\Local\Temp\ccSqZeZu.s 			page 16


 208:main.c        ****     CyGlobalIntEnable; /* Enable global interrupts. */  
 593              		.loc 1 208 0
 594              		.syntax divided
 595              	@ 208 "main.c" 1
 596 0002 62B6     		CPSIE   i
 597              	@ 0 "" 2
 209:main.c        ****    
 210:main.c        ****     SW_Tx_UART_Start();  
 598              		.loc 1 210 0
 599              		.thumb
 600              		.syntax unified
 601 0004 FFF7FEFF 		bl	SW_Tx_UART_Start
 602              	.LVL70:
 211:main.c        ****     SW_Tx_UART_PutCRLF();  
 603              		.loc 1 211 0
 604 0008 FFF7FEFF 		bl	SW_Tx_UART_PutCRLF
 605              	.LVL71:
 212:main.c        ****     SW_Tx_UART_PutString("Software Transmit UART");  
 606              		.loc 1 212 0
 607 000c 4148     		ldr	r0, .L72
 608 000e FFF7FEFF 		bl	SW_Tx_UART_PutString
 609              	.LVL72:
 213:main.c        ****     SW_Tx_UART_PutCRLF(); 
 610              		.loc 1 213 0
 611 0012 FFF7FEFF 		bl	SW_Tx_UART_PutCRLF
 612              	.LVL73:
 214:main.c        ****     SW_Tx_UART_PutString("Enter password to unlock"); 
 613              		.loc 1 214 0
 614 0016 4048     		ldr	r0, .L72+4
 615 0018 FFF7FEFF 		bl	SW_Tx_UART_PutString
 616              	.LVL74:
 215:main.c        ****     SW_Tx_UART_PutCRLF(); 
 617              		.loc 1 215 0
 618 001c FFF7FEFF 		bl	SW_Tx_UART_PutCRLF
 619              	.LVL75:
 216:main.c        ****   
 217:main.c        ****     initMatrix(); 
 620              		.loc 1 217 0
 621 0020 FFF7FEFF 		bl	initMatrix
 622              	.LVL76:
 218:main.c        ****      
 219:main.c        ****     uint8_t last_state = 255; // ąØč¢čÅą║ą░ ą║ąĮąŠą┐ą║ą░ ąĮąĄ ąĮą░čéąĖčüąĮčāčéą░ 
 220:main.c        ****     uint8_t button_pressed = 0; 
 221:main.c        ****      
 222:main.c        ****     // ą¤ąŠčćą░čéą║ąŠą▓ąĖą╣ čüčéą░ąĮ - ą▒č¢ą╗ąĖą╣ čüą▓č¢čéą╗ąŠą┤č¢ąŠą┤ (čüąĖčüčéąĄą╝ą░ ąĘą░ą▒ą╗ąŠą║
 223:main.c        ****     LED_R_Write(0); 
 623              		.loc 1 223 0
 624 0024 0020     		movs	r0, #0
 625 0026 FFF7FEFF 		bl	LED_R_Write
 626              	.LVL77:
 224:main.c        ****     LED_G_Write(0); 
 627              		.loc 1 224 0
 628 002a 0020     		movs	r0, #0
 629 002c FFF7FEFF 		bl	LED_G_Write
 630              	.LVL78:
 225:main.c        ****     LED_B_Write(0); 
 631              		.loc 1 225 0
ARM GAS  C:\Users\User\AppData\Local\Temp\ccSqZeZu.s 			page 17


 632 0030 0020     		movs	r0, #0
 633 0032 FFF7FEFF 		bl	LED_B_Write
 634              	.LVL79:
 219:main.c        ****     uint8_t button_pressed = 0; 
 635              		.loc 1 219 0
 636 0036 FF26     		movs	r6, #255
 637              	.LVL80:
 638              	.L65:
 226:main.c        ****      
 227:main.c        ****     for(;;)  
 228:main.c        ****     {       
 229:main.c        ****         readMatrix(); 
 639              		.loc 1 229 0
 640 0038 FFF7FEFF 		bl	readMatrix
 641              	.LVL81:
 642              	.LBB7:
 230:main.c        ****         button_pressed = 0; 
 231:main.c        ****          
 232:main.c        ****         // ąĪą║ą░ąĮčāą▓ą░ąĮąĮčÅ ą▓čüč¢čģ ą║ąĮąŠą┐ąŠą║ 
 233:main.c        ****         for(int row = 0; row < 4; row++) 
 643              		.loc 1 233 0
 644 003c 0025     		movs	r5, #0
 645              	.LBE7:
 230:main.c        ****         button_pressed = 0; 
 646              		.loc 1 230 0
 647 003e 0020     		movs	r0, #0
 648              	.LBB12:
 649              		.loc 1 233 0
 650 0040 46E0     		b	.L52
 651              	.LVL82:
 652              	.L60:
 653              	.LBB8:
 234:main.c        ****         { 
 235:main.c        ****             for(int col = 0; col < 3; col++) 
 236:main.c        ****             { 
 237:main.c        ****                 if(keys[row][col] == 0) // ąÜąĮąŠą┐ą║ą░ ąĮą░čéąĖčüąĮčāčéą░ 
 654              		.loc 1 237 0
 655 0042 6B00     		lsls	r3, r5, #1
 656 0044 5B19     		adds	r3, r3, r5
 657 0046 3549     		ldr	r1, .L72+8
 658 0048 CB18     		adds	r3, r1, r3
 659 004a 9B5C     		ldrb	r3, [r3, r2]
 660 004c 002B     		cmp	r3, #0
 661 004e 32D1     		bne	.L53
 662              	.LBB9:
 238:main.c        ****                 { 
 239:main.c        ****                     uint8_t button_value = (row == 3 && col == 1) ? 0 :  
 663              		.loc 1 239 0
 664 0050 032D     		cmp	r5, #3
 665 0052 01D1     		bne	.L54
 666              		.loc 1 239 0 is_stmt 0 discriminator 2
 667 0054 012A     		cmp	r2, #1
 668 0056 0DD0     		beq	.L66
 669              	.L54:
 670              		.loc 1 239 0 discriminator 3
 671 0058 032D     		cmp	r5, #3
 672 005a 01D1     		bne	.L56
ARM GAS  C:\Users\User\AppData\Local\Temp\ccSqZeZu.s 			page 18


 240:main.c        ****                                           (row == 3 && col == 0) ? 10 : 
 673              		.loc 1 240 0 is_stmt 1
 674 005c 002A     		cmp	r2, #0
 675 005e 0BD0     		beq	.L67
 676              	.L56:
 239:main.c        ****                                           (row == 3 && col == 0) ? 10 : 
 677              		.loc 1 239 0 discriminator 5
 678 0060 032D     		cmp	r5, #3
 679 0062 01D1     		bne	.L57
 241:main.c        ****                                           (row == 3 && col == 2) ? 11 : 
 680              		.loc 1 241 0
 681 0064 022A     		cmp	r2, #2
 682 0066 09D0     		beq	.L68
 683              	.L57:
 239:main.c        ****                                           (row == 3 && col == 0) ? 10 : 
 684              		.loc 1 239 0 discriminator 6
 685 0068 6C00     		lsls	r4, r5, #1
 686 006a 2C19     		adds	r4, r5, r4
 687 006c A218     		adds	r2, r4, r2
 688              	.LVL83:
 689 006e 0132     		adds	r2, r2, #1
 690 0070 D4B2     		uxtb	r4, r2
 691 0072 04E0     		b	.L55
 692              	.LVL84:
 693              	.L66:
 239:main.c        ****                                           (row == 3 && col == 0) ? 10 : 
 694              		.loc 1 239 0 is_stmt 0
 695 0074 0024     		movs	r4, #0
 696 0076 02E0     		b	.L55
 697              	.L67:
 698 0078 0A24     		movs	r4, #10
 699 007a 00E0     		b	.L55
 700              	.L68:
 701 007c 0B24     		movs	r4, #11
 702              	.LVL85:
 703              	.L55:
 242:main.c        ****                                           (row * 3 + col + 1); 
 243:main.c        ****                      
 244:main.c        ****                     if(last_state != button_value) 
 704              		.loc 1 244 0 is_stmt 1 discriminator 12
 705 007e A642     		cmp	r6, r4
 706 0080 1FD0     		beq	.L69
 707              	.LVL86:
 245:main.c        ****                     { 
 246:main.c        ****                         last_state = button_value; 
 247:main.c        ****                         printButtonName(button_value); 
 708              		.loc 1 247 0
 709 0082 2000     		movs	r0, r4
 710              	.LVL87:
 711 0084 FFF7FEFF 		bl	printButtonName
 712              	.LVL88:
 248:main.c        ****                          
 249:main.c        ****                         // ą»ą║čēąŠ čüąĖčüčéąĄą╝ą░ ąĘą░ą▒ą╗ąŠą║ąŠą▓ą░ąĮą░, ąĘą▒ąĖčĆą░čöą╝ąŠ ą┐ą░čĆą
 250:main.c        ****                         if(password_locked) 
 713              		.loc 1 250 0
 714 0088 244B     		ldr	r3, .L72+8
 715 008a 1B7B     		ldrb	r3, [r3, #12]
ARM GAS  C:\Users\User\AppData\Local\Temp\ccSqZeZu.s 			page 19


 716 008c 002B     		cmp	r3, #0
 717 008e 0CD0     		beq	.L59
 251:main.c        ****                         { 
 252:main.c        ****                             password_buffer[password_index] = button_value; 
 718              		.loc 1 252 0
 719 0090 234A     		ldr	r2, .L72+12
 720 0092 D378     		ldrb	r3, [r2, #3]
 721 0094 D454     		strb	r4, [r2, r3]
 253:main.c        ****                             password_index++; 
 722              		.loc 1 253 0
 723 0096 0133     		adds	r3, r3, #1
 724 0098 DBB2     		uxtb	r3, r3
 725 009a D370     		strb	r3, [r2, #3]
 254:main.c        ****                              
 255:main.c        ****                             if(password_index >= PASSWORD_LENGTH) 
 726              		.loc 1 255 0
 727 009c 022B     		cmp	r3, #2
 728 009e 12D9     		bls	.L70
 256:main.c        ****                             { 
 257:main.c        ****                                 checkPassword(); 
 729              		.loc 1 257 0
 730 00a0 FFF7FEFF 		bl	checkPassword
 731              	.LVL89:
 246:main.c        ****                         printButtonName(button_value); 
 732              		.loc 1 246 0
 733 00a4 2600     		movs	r6, r4
 258:main.c        ****                             } 
 259:main.c        ****                         } 
 260:main.c        ****                         else 
 261:main.c        ****                         { 
 262:main.c        ****                             // ąĪąĖčüčéąĄą╝ą░ čĆąŠąĘą▒ą╗ąŠą║ąŠą▓ą░ąĮą░, ąĘą╝č¢ąĮčÄčöą╝ąŠ ą║ąŠą╗č¢čĆ
 263:main.c        ****                             setLEDColor(button_value); 
 264:main.c        ****                         } 
 265:main.c        ****                     } 
 266:main.c        ****                     button_pressed = 1; 
 734              		.loc 1 266 0
 735 00a6 0120     		movs	r0, #1
 736 00a8 0FE0     		b	.L58
 737              	.L59:
 263:main.c        ****                         } 
 738              		.loc 1 263 0
 739 00aa 2000     		movs	r0, r4
 740 00ac FFF7FEFF 		bl	setLEDColor
 741              	.LVL90:
 246:main.c        ****                         printButtonName(button_value); 
 742              		.loc 1 246 0
 743 00b0 2600     		movs	r6, r4
 744              		.loc 1 266 0
 745 00b2 0120     		movs	r0, #1
 746 00b4 09E0     		b	.L58
 747              	.LVL91:
 748              	.L53:
 749              	.LBE9:
 235:main.c        ****             { 
 750              		.loc 1 235 0 discriminator 2
 751 00b6 0132     		adds	r2, r2, #1
 752              	.LVL92:
ARM GAS  C:\Users\User\AppData\Local\Temp\ccSqZeZu.s 			page 20


 753 00b8 00E0     		b	.L62
 754              	.LVL93:
 755              	.L71:
 756              	.LBE8:
 757 00ba 0022     		movs	r2, #0
 758              	.L62:
 759              	.LVL94:
 760              	.LBB11:
 235:main.c        ****             { 
 761              		.loc 1 235 0 is_stmt 0 discriminator 1
 762 00bc 022A     		cmp	r2, #2
 763 00be C0DD     		ble	.L60
 764 00c0 03E0     		b	.L58
 765              	.LVL95:
 766              	.L69:
 767              	.LBB10:
 768              		.loc 1 266 0 is_stmt 1
 769 00c2 0120     		movs	r0, #1
 770              	.LVL96:
 771 00c4 01E0     		b	.L58
 772              	.LVL97:
 773              	.L70:
 246:main.c        ****                         printButtonName(button_value); 
 774              		.loc 1 246 0
 775 00c6 2600     		movs	r6, r4
 776              		.loc 1 266 0
 777 00c8 0120     		movs	r0, #1
 778              	.LVL98:
 779              	.L58:
 780              	.LBE10:
 781              	.LBE11:
 267:main.c        ****                     break; 
 268:main.c        ****                 } 
 269:main.c        ****             } 
 270:main.c        ****             if(button_pressed) break; 
 782              		.loc 1 270 0
 783 00ca 0028     		cmp	r0, #0
 784 00cc 02D1     		bne	.L61
 233:main.c        ****         { 
 785              		.loc 1 233 0 discriminator 2
 786 00ce 0135     		adds	r5, r5, #1
 787              	.LVL99:
 788              	.L52:
 233:main.c        ****         { 
 789              		.loc 1 233 0 is_stmt 0 discriminator 1
 790 00d0 032D     		cmp	r5, #3
 791 00d2 F2DD     		ble	.L71
 792              	.L61:
 793              	.LBE12:
 271:main.c        ****         } 
 272:main.c        ****          
 273:main.c        ****         // ą»ą║čēąŠ ąČąŠą┤ąĮą░ ą║ąĮąŠą┐ą║ą░ ąĮąĄ ąĮą░čéąĖčüąĮčāčéą░ 
 274:main.c        ****         if(!button_pressed) 
 794              		.loc 1 274 0 is_stmt 1
 795 00d4 0028     		cmp	r0, #0
 796 00d6 19D1     		bne	.L63
 275:main.c        ****         { 
ARM GAS  C:\Users\User\AppData\Local\Temp\ccSqZeZu.s 			page 21


 276:main.c        ****             if(last_state != 255) 
 797              		.loc 1 276 0
 798 00d8 FF2E     		cmp	r6, #255
 799 00da 17D0     		beq	.L63
 800              	.LVL100:
 277:main.c        ****             { 
 278:main.c        ****                 last_state = 255; 
 279:main.c        ****                  
 280:main.c        ****                 if(password_locked) 
 801              		.loc 1 280 0
 802 00dc 0F4B     		ldr	r3, .L72+8
 803 00de 1B7B     		ldrb	r3, [r3, #12]
 804 00e0 002B     		cmp	r3, #0
 805 00e2 09D0     		beq	.L64
 281:main.c        ****                 { 
 282:main.c        ****                     // ąæč¢ą╗ąĖą╣ čüą▓č¢čéą╗ąŠą┤č¢ąŠą┤, ą║ąŠą╗ąĖ čüąĖčüčéąĄą╝ą░ ąĘą░ą▒ą╗ąŠą║ąŠą▓ą░ą
 283:main.c        ****                     LED_R_Write(0); 
 806              		.loc 1 283 0
 807 00e4 FFF7FEFF 		bl	LED_R_Write
 808              	.LVL101:
 284:main.c        ****                     LED_G_Write(0); 
 809              		.loc 1 284 0
 810 00e8 0020     		movs	r0, #0
 811 00ea FFF7FEFF 		bl	LED_G_Write
 812              	.LVL102:
 285:main.c        ****                     LED_B_Write(0); 
 813              		.loc 1 285 0
 814 00ee 0020     		movs	r0, #0
 815 00f0 FFF7FEFF 		bl	LED_B_Write
 816              	.LVL103:
 278:main.c        ****                  
 817              		.loc 1 278 0
 818 00f4 FF26     		movs	r6, #255
 819 00f6 09E0     		b	.L63
 820              	.LVL104:
 821              	.L64:
 286:main.c        ****                 } 
 287:main.c        ****                 else 
 288:main.c        ****                 { 
 289:main.c        ****                     // ąÆąĖą╝ą║ąĮčāčéąĖ čüą▓č¢čéą╗ąŠą┤č¢ąŠą┤ (Black), ą║ąŠą╗ąĖ čüąĖčüčéąĄą╝ą░ čĆąŠą
 290:main.c        ****                     LED_R_Write(1); 
 822              		.loc 1 290 0
 823 00f8 0120     		movs	r0, #1
 824              	.LVL105:
 825 00fa FFF7FEFF 		bl	LED_R_Write
 826              	.LVL106:
 291:main.c        ****                     LED_G_Write(1); 
 827              		.loc 1 291 0
 828 00fe 0120     		movs	r0, #1
 829 0100 FFF7FEFF 		bl	LED_G_Write
 830              	.LVL107:
 292:main.c        ****                     LED_B_Write(1); 
 831              		.loc 1 292 0
 832 0104 0120     		movs	r0, #1
 833 0106 FFF7FEFF 		bl	LED_B_Write
 834              	.LVL108:
 278:main.c        ****                  
ARM GAS  C:\Users\User\AppData\Local\Temp\ccSqZeZu.s 			page 22


 835              		.loc 1 278 0
 836 010a FF26     		movs	r6, #255
 837              	.LVL109:
 838              	.L63:
 293:main.c        ****                 } 
 294:main.c        ****             } 
 295:main.c        ****         } 
 296:main.c        ****          
 297:main.c        ****         CyDelay(50); // Debounce delay 
 839              		.loc 1 297 0
 840 010c 3220     		movs	r0, #50
 841 010e FFF7FEFF 		bl	CyDelay
 842              	.LVL110:
 298:main.c        ****     } 
 843              		.loc 1 298 0
 844 0112 91E7     		b	.L65
 845              	.L73:
 846              		.align	2
 847              	.L72:
 848 0114 10010000 		.word	.LC36
 849 0118 28010000 		.word	.LC38
 850 011c 00000000 		.word	.LANCHOR1
 851 0120 00000000 		.word	.LANCHOR2
 852              		.cfi_endproc
 853              	.LFE37:
 854              		.size	main, .-main
 855              		.section	.rodata
 856              		.align	2
 857              		.set	.LANCHOR0,. + 0
 858              		.type	COLUMN_x_SetDriveMode, %object
 859              		.size	COLUMN_x_SetDriveMode, 12
 860              	COLUMN_x_SetDriveMode:
 861 0060 00000000 		.word	COLUMN_0_SetDriveMode
 862 0064 00000000 		.word	COLUMN_1_SetDriveMode
 863 0068 00000000 		.word	COLUMN_2_SetDriveMode
 864              		.type	COLUMN_x_Write, %object
 865              		.size	COLUMN_x_Write, 12
 866              	COLUMN_x_Write:
 867 006c 00000000 		.word	COLUMN_0_Write
 868 0070 00000000 		.word	COLUMN_1_Write
 869 0074 00000000 		.word	COLUMN_2_Write
 870              		.type	ROW_x_Read, %object
 871              		.size	ROW_x_Read, 16
 872              	ROW_x_Read:
 873 0078 00000000 		.word	ROW_0_Read
 874 007c 00000000 		.word	ROW_1_Read
 875 0080 00000000 		.word	ROW_2_Read
 876 0084 00000000 		.word	ROW_3_Read
 877              		.align	2
 878              		.set	.LANCHOR3,. + 0
 879              		.type	PASSWORD, %object
 880              		.size	PASSWORD, 3
 881              	PASSWORD:
 882 0088 01       		.byte	1
 883 0089 02       		.byte	2
 884 008a 03       		.byte	3
 885              		.data
ARM GAS  C:\Users\User\AppData\Local\Temp\ccSqZeZu.s 			page 23


 886              		.align	2
 887              		.set	.LANCHOR1,. + 0
 888              		.type	keys, %object
 889              		.size	keys, 12
 890              	keys:
 891 0000 01       		.byte	1
 892 0001 02       		.byte	2
 893 0002 03       		.byte	3
 894 0003 04       		.byte	4
 895 0004 05       		.byte	5
 896 0005 06       		.byte	6
 897 0006 07       		.byte	7
 898 0007 08       		.byte	8
 899 0008 09       		.byte	9
 900 0009 0A       		.byte	10
 901 000a 00       		.byte	0
 902 000b 0B       		.byte	11
 903              		.type	password_locked, %object
 904              		.size	password_locked, 1
 905              	password_locked:
 906 000c 01       		.byte	1
 907              		.section	.rodata.str1.4,"aMS",%progbits,1
 908              		.align	2
 909              	.LC4:
 910 0000 42757474 		.ascii	"Button 0 pressed\000"
 910      6F6E2030 
 910      20707265 
 910      73736564 
 910      00
 911 0011 000000   		.space	3
 912              	.LC6:
 913 0014 42757474 		.ascii	"Button 1 pressed\000"
 913      6F6E2031 
 913      20707265 
 913      73736564 
 913      00
 914 0025 000000   		.space	3
 915              	.LC8:
 916 0028 42757474 		.ascii	"Button 2 pressed\000"
 916      6F6E2032 
 916      20707265 
 916      73736564 
 916      00
 917 0039 000000   		.space	3
 918              	.LC10:
 919 003c 42757474 		.ascii	"Button 3 pressed\000"
 919      6F6E2033 
 919      20707265 
 919      73736564 
 919      00
 920 004d 000000   		.space	3
 921              	.LC12:
 922 0050 42757474 		.ascii	"Button 4 pressed\000"
 922      6F6E2034 
 922      20707265 
 922      73736564 
 922      00
ARM GAS  C:\Users\User\AppData\Local\Temp\ccSqZeZu.s 			page 24


 923 0061 000000   		.space	3
 924              	.LC14:
 925 0064 42757474 		.ascii	"Button 5 pressed\000"
 925      6F6E2035 
 925      20707265 
 925      73736564 
 925      00
 926 0075 000000   		.space	3
 927              	.LC16:
 928 0078 42757474 		.ascii	"Button 6 pressed\000"
 928      6F6E2036 
 928      20707265 
 928      73736564 
 928      00
 929 0089 000000   		.space	3
 930              	.LC18:
 931 008c 42757474 		.ascii	"Button 7 pressed\000"
 931      6F6E2037 
 931      20707265 
 931      73736564 
 931      00
 932 009d 000000   		.space	3
 933              	.LC20:
 934 00a0 42757474 		.ascii	"Button 8 pressed\000"
 934      6F6E2038 
 934      20707265 
 934      73736564 
 934      00
 935 00b1 000000   		.space	3
 936              	.LC22:
 937 00b4 42757474 		.ascii	"Button 9 pressed\000"
 937      6F6E2039 
 937      20707265 
 937      73736564 
 937      00
 938 00c5 000000   		.space	3
 939              	.LC24:
 940 00c8 42757474 		.ascii	"Button * pressed\000"
 940      6F6E202A 
 940      20707265 
 940      73736564 
 940      00
 941 00d9 000000   		.space	3
 942              	.LC26:
 943 00dc 42757474 		.ascii	"Button # pressed\000"
 943      6F6E2023 
 943      20707265 
 943      73736564 
 943      00
 944 00ed 000000   		.space	3
 945              	.LC31:
 946 00f0 41636365 		.ascii	"Access allowed\000"
 946      73732061 
 946      6C6C6F77 
 946      656400
 947 00ff 00       		.space	1
 948              	.LC34:
ARM GAS  C:\Users\User\AppData\Local\Temp\ccSqZeZu.s 			page 25


 949 0100 41636365 		.ascii	"Access denied\000"
 949      73732064 
 949      656E6965 
 949      6400
 950 010e 0000     		.space	2
 951              	.LC36:
 952 0110 536F6674 		.ascii	"Software Transmit UART\000"
 952      77617265 
 952      20547261 
 952      6E736D69 
 952      74205541 
 953 0127 00       		.space	1
 954              	.LC38:
 955 0128 456E7465 		.ascii	"Enter password to unlock\000"
 955      72207061 
 955      7373776F 
 955      72642074 
 955      6F20756E 
 956              		.bss
 957              		.align	2
 958              		.set	.LANCHOR2,. + 0
 959              		.type	password_buffer, %object
 960              		.size	password_buffer, 3
 961              	password_buffer:
 962 0000 000000   		.space	3
 963              		.type	password_index, %object
 964              		.size	password_index, 1
 965              	password_index:
 966 0003 00       		.space	1
 967              		.text
 968              	.Letext0:
 969              		.file 2 "c:\\program files (x86)\\cypress\\psoc creator\\4.4\\psoc creator\\import\\gnu\\arm\\5.4.
 970              		.file 3 "c:\\program files (x86)\\cypress\\psoc creator\\4.4\\psoc creator\\import\\gnu\\arm\\5.4.
 971              		.file 4 "Generated_Source\\PSoC4/cytypes.h"
 972              		.file 5 "Generated_Source\\PSoC4/SW_Tx_UART.h"
 973              		.file 6 "Generated_Source\\PSoC4/LED_R.h"
 974              		.file 7 "Generated_Source\\PSoC4/LED_G.h"
 975              		.file 8 "Generated_Source\\PSoC4/LED_B.h"
 976              		.file 9 "Generated_Source\\PSoC4/CyLib.h"